(cnumpy.core.multiarray
_reconstruct
p0
(cnumpy
ndarray
p1
(I0
tp2
S'b'
p3
tp4
Rp5
(I1
(I100
I10
tp6
cnumpy
dtype
p7
(S'O8'
p8
I0
I1
tp9
Rp10
(I3
S'|'
p11
NNNI-1
I-1
I63
tp12
bI00
(lp13
S'T'
p14
aS'C'
p15
ag15
ag14
aS'A'
p16
ag14
ag14
ag15
aS'G'
p17
ag15
ag14
ag15
ag16
ag17
ag15
ag15
ag15
ag14
ag15
ag15
ag15
ag17
ag14
ag16
ag15
ag15
ag14
ag14
ag14
ag16
ag17
ag15
ag15
ag15
ag14
ag14
ag17
ag16
ag15
ag14
ag15
ag14
ag16
ag15
ag17
ag15
ag16
ag16
ag14
ag15
ag15
ag14
ag14
ag14
ag14
ag15
ag17
ag14
ag15
ag14
ag14
ag14
ag16
ag14
ag15
ag15
ag15
ag15
ag15
ag15
ag14
ag15
ag15
ag15
ag14
ag14
ag15
ag15
ag16
ag16
ag14
ag14
ag15
ag15
ag16
ag15
ag15
ag15
ag15
ag15
ag16
ag15
ag15
ag15
ag15
ag15
ag14
ag15
ag15
ag15
ag15
ag17
ag15
ag15
ag15
ag14
ag15
ag16
ag15
ag17
ag15
ag15
ag14
ag15
ag15
ag16
ag14
ag14
ag14
ag15
ag14
ag15
ag14
ag15
ag17
ag15
ag15
ag15
ag14
ag15
ag15
ag15
ag14
ag15
ag15
ag15
ag15
ag14
ag14
ag15
ag15
ag15
ag15
ag14
ag14
ag15
ag14
ag14
ag14
ag15
ag15
ag14
ag17
ag15
ag15
ag16
ag16
ag14
ag15
ag14
ag14
ag15
ag14
ag15
ag14
ag15
ag16
ag16
ag15
ag17
ag14
ag15
ag15
ag14
ag15
ag14
ag15
ag14
ag17
ag14
ag15
ag14
ag17
ag16
ag15
ag15
ag15
ag14
ag15
ag15
ag15
ag16
ag15
ag15
ag15
ag17
ag14
ag15
ag17
ag15
ag17
ag14
ag14
ag15
ag14
ag15
ag16
ag17
ag15
ag17
ag14
ag15
ag14
ag14
ag14
ag16
ag14
ag15
ag15
ag14
ag15
ag14
ag17
ag14
ag15
ag16
ag14
ag14
ag14
ag15
ag15
ag16
ag16
ag15
ag15
ag15
ag17
ag15
ag14
ag17
ag15
ag14
ag14
ag14
ag17
ag16
ag15
ag15
ag15
ag15
ag15
ag14
ag15
ag16
ag16
ag15
ag17
ag15
ag14
ag15
ag14
ag15
ag15
ag15
ag14
ag14
ag14
ag14
ag15
ag14
ag15
ag17
ag14
ag15
ag15
ag16
ag16
ag15
ag15
ag15
ag14
ag15
ag15
ag15
ag15
ag15
ag15
ag17
ag15
ag16
ag15
ag15
ag15
ag14
ag17
ag15
ag14
ag14
ag15
ag17
ag14
ag14
ag15
ag15
ag16
ag15
ag15
ag15
ag15
ag14
ag15
ag17
ag14
ag15
ag14
ag15
ag14
ag14
ag14
ag14
ag16
ag14
ag16
ag15
ag14
ag15
ag15
ag15
ag14
ag15
ag15
ag15
ag14
ag15
ag15
ag14
ag15
ag17
ag14
ag15
ag15
ag15
ag14
ag16
ag14
ag15
ag14
ag17
ag17
ag17
ag15
ag15
ag15
ag15
ag15
ag15
ag14
ag15
ag15
ag15
ag14
ag14
ag15
ag15
ag16
ag15
ag15
ag14
ag14
ag14
ag14
ag14
ag15
ag14
ag14
ag15
ag16
ag14
ag14
ag15
ag17
ag16
ag17
ag17
ag15
ag15
ag15
ag16
ag15
ag14
ag16
ag15
ag14
ag14
ag15
ag15
ag14
ag15
ag14
ag14
ag15
ag15
ag14
ag14
ag14
ag15
ag14
ag15
ag14
ag15
ag14
ag16
ag16
ag14
ag15
ag14
ag14
ag15
ag15
ag14
ag14
ag15
ag17
ag14
ag14
ag15
ag14
ag14
ag14
ag16
ag15
ag15
ag15
ag15
ag14
ag15
ag17
ag15
ag17
ag15
ag15
ag16
ag17
ag14
ag15
ag15
ag15
ag15
ag15
ag16
ag14
ag15
ag14
ag14
ag14
ag15
ag15
ag14
ag16
ag15
ag15
ag15
ag15
ag14
ag15
ag14
ag15
ag16
ag14
ag14
ag14
ag14
ag14
ag15
ag14
ag14
ag15
ag15
ag17
ag14
ag14
ag17
ag15
ag14
ag15
ag15
ag15
ag14
ag15
ag15
ag15
ag15
ag15
ag17
ag17
ag15
ag17
ag15
ag15
ag15
ag17
ag15
ag17
ag14
ag16
ag15
ag15
ag16
ag17
ag15
ag15
ag15
ag15
ag15
ag14
ag16
ag17
ag15
ag17
ag14
ag14
ag15
ag16
ag14
ag15
ag15
ag14
ag17
ag15
ag15
ag14
ag15
ag16
ag15
ag14
ag14
ag15
ag14
ag15
ag17
ag14
ag15
ag14
ag15
ag15
ag15
ag15
ag16
ag15
ag14
ag16
ag14
ag15
ag15
ag16
ag14
ag15
ag15
ag14
ag14
ag15
ag15
ag14
ag14
ag15
ag15
ag15
ag15
ag15
ag16
ag14
ag15
ag15
ag15
ag17
ag17
ag14
ag14
ag15
ag15
ag14
ag15
ag15
ag14
ag15
ag15
ag15
ag17
ag15
ag15
ag15
ag15
ag14
ag15
ag17
ag14
ag14
ag15
ag16
ag14
ag15
ag16
ag14
ag17
ag14
ag14
ag15
ag14
ag16
ag14
ag15
ag15
ag14
ag15
ag15
ag15
ag16
ag14
ag15
ag16
ag17
ag15
ag14
ag15
ag15
ag15
ag14
ag15
ag15
ag14
ag14
ag15
ag15
ag15
ag15
ag15
ag16
ag15
ag14
ag15
ag14
ag14
ag14
ag15
ag17
ag17
ag15
ag15
ag15
ag15
ag16
ag15
ag14
ag15
ag15
ag15
ag15
ag15
ag17
ag15
ag15
ag14
ag17
ag15
ag15
ag14
ag14
ag15
ag15
ag15
ag14
ag14
ag15
ag14
ag15
ag15
ag15
ag17
ag14
ag14
ag15
ag15
ag15
ag15
ag17
ag17
ag15
ag14
ag15
ag15
ag15
ag17
ag15
ag17
ag14
ag14
ag16
ag16
ag17
ag15
ag15
ag15
ag15
ag14
ag15
ag15
ag17
ag15
ag15
ag17
ag17
ag17
ag15
ag17
ag15
ag14
ag14
ag15
ag14
ag16
ag15
ag17
ag15
ag17
ag14
ag17
ag15
ag16
ag15
ag15
ag14
ag16
ag15
ag15
ag15
ag15
ag15
ag15
ag15
ag14
ag15
ag16
ag14
ag17
ag16
ag14
ag15
ag14
ag15
ag15
ag14
ag15
ag17
ag14
ag15
ag17
ag15
ag14
ag15
ag15
ag15
ag14
ag15
ag14
ag14
ag15
ag15
ag15
ag16
ag17
ag14
ag15
ag15
ag14
ag15
ag14
ag14
ag15
ag15
ag15
ag15
ag15
ag15
ag14
ag17
ag14
ag15
ag16
ag14
ag14
ag14
ag15
ag14
ag16
ag16
ag14
ag14
ag14
ag15
ag15
ag15
ag14
ag14
ag14
ag15
ag15
ag15
ag16
ag15
ag15
ag15
ag15
ag15
ag17
ag14
ag15
ag16
ag14
ag15
ag15
ag14
ag15
ag17
ag14
ag15
ag15
ag17
ag15
ag16
ag15
ag14
ag17
ag15
ag15
ag14
ag15
ag15
ag14
ag15
ag17
ag15
ag17
ag15
ag15
ag15
ag15
ag14
ag14
ag14
ag14
ag14
ag17
ag16
ag15
ag14
ag15
ag15
ag15
ag17
ag15
ag15
ag14
ag15
ag15
ag15
ag14
ag16
ag14
ag15
ag15
ag16
ag14
ag14
ag15
ag14
ag15
ag16
ag15
ag14
ag15
ag15
ag15
ag15
ag17
ag15
ag16
ag14
ag15
ag15
ag15
ag15
ag15
ag14
ag15
ag14
ag16
ag15
ag15
ag15
ag15
ag15
ag14
ag14
ag15
ag14
ag14
ag14
ag15
ag14
ag14
ag14
ag14
ag15
ag17
ag15
ag14
ag15
ag15
ag15
ag15
ag15
ag17
ag14
ag14
ag14
ag14
ag15
ag15
ag15
ag15
ag14
ag14
ag15
ag17
ag17
ag15
ag14
ag17
ag15
ag14
ag15
ag15
ag15
ag14
ag14
ag17
ag14
ag16
ag16
ag17
ag17
ag15
ag16
ag14
ag14
ag14
ag16
ag14
ag15
ag17
ag14
ag15
ag15
ag15
ag15
ag14
ag15
ag15
ag15
ag14
ag15
ag16
ag15
ag15
ag16
ag17
ag15
ag15
ag14
ag14
ag15
ag14
ag14
ag16
ag14
ag14
ag14
ag15
ag14
ag15
ag15
ag14
ag15
ag17
ag16
ag15
ag15
ag15
ag14
ag16
atp18
b(lp19
(lp20
ccopy_reg
_reconstructor
p21
(cnltk.grammar
Nonterminal
p22
c__builtin__
object
p23
Ntp24
Rp25
(dp26
S'_symbol'
p27
S'NT_2'
p28
sS'_hash'
p29
I-7985435147425591463
sbaa(lp30
g25
aa(lp31
g25
aa(lp32
g25
aa(lp33
g25
aa(lp34
g25
aa(lp35
g25
aa(lp36
g25
aa(lp37
g25
aa(lp38
g25
aa(lp39
g25
aa(lp40
g25
aa(lp41
g25
aa(lp42
g25
aa(lp43
g25
aa(lp44
g25
aa(lp45
g25
aa(lp46
g25
aa(lp47
g25
aa(lp48
g25
aa(lp49
g25
aa(lp50
g25
aa(lp51
g25
aa(lp52
g25
aa(lp53
g25
aa(lp54
g25
aa(lp55
g25
aa(lp56
g25
aa(lp57
g25
aa(lp58
g25
aa(lp59
g25
aa(lp60
g25
aa(lp61
g25
aa(lp62
g25
aa(lp63
g25
aa(lp64
g25
aa(lp65
g25
aa(lp66
g25
aa(lp67
g25
aa(lp68
g25
aa(lp69
g25
aa(lp70
g25
aa(lp71
g25
aa(lp72
g25
aa(lp73
g25
aa(lp74
g25
aa(lp75
g25
aa(lp76
g25
aa(lp77
g25
aa(lp78
g25
aa(lp79
g25
aa(lp80
g25
aa(lp81
g25
aa(lp82
g25
aa(lp83
g25
aa(lp84
g25
aa(lp85
g25
aa(lp86
g25
aa(lp87
g25
aa(lp88
g25
aa(lp89
g25
aa(lp90
g25
aa(lp91
g25
aa(lp92
g25
aa(lp93
g25
aa(lp94
g25
aa(lp95
g25
aa(lp96
g25
aa(lp97
g25
aa(lp98
g25
aa(lp99
g25
aa(lp100
g25
aa(lp101
g25
aa(lp102
g25
aa(lp103
g25
aa(lp104
g25
aa(lp105
g25
aa(lp106
g25
aa(lp107
g25
aa(lp108
g25
aa(lp109
g25
aa(lp110
g25
aa(lp111
g25
aa(lp112
g25
aa(lp113
g25
aa(lp114
g25
aa(lp115
g25
aa(lp116
g25
aa(lp117
g25
aa(lp118
g25
aa(lp119
g25
aa(lp120
g25
aa(lp121
g25
aa(lp122
g25
aa(lp123
g25
aa(lp124
g25
aa(lp125
g25
aa(lp126
g25
aa(lp127
g25
aa(lp128
g25
aag21
(cnltk.grammar
WeightedGrammar
p129
g23
Ntp130
Rp131
(dp132
S'_immediate_leftcorner_words'
p133
(dp134
g21
(g22
g23
Ntp135
Rp136
(dp137
g27
S'NT_0_A'
p138
sg29
I4001506077298011969
sbc__builtin__
set
p139
((lp140
cnumpy.core.multiarray
scalar
p141
(g7
(S'S1'
p142
I0
I1
tp143
Rp144
(I3
S'|'
p145
NNNI1
I1
I0
tp146
bg16
tp147
Rp148
ag141
(g7
(S'S1'
p149
I0
I1
tp150
Rp151
(I3
S'|'
p152
NNNI1
I1
I0
tp153
bg15
tp154
Rp155
ag14
ag141
(g7
(S'S1'
p156
I0
I1
tp157
Rp158
(I3
S'|'
p159
NNNI1
I1
I0
tp160
bg17
tp161
Rp162
atp163
Rp164
sg21
(g22
g23
Ntp165
Rp166
(dp167
g27
S'NT_0_B'
p168
sg29
I4001506077298011970
sbg139
((lp169
g141
(g7
(S'S1'
p170
I0
I1
tp171
Rp172
(I3
S'|'
p173
NNNI1
I1
I0
tp174
bg16
tp175
Rp176
ag15
ag141
(g7
(S'S1'
p177
I0
I1
tp178
Rp179
(I3
S'|'
p180
NNNI1
I1
I0
tp181
bg14
tp182
Rp183
ag141
(g7
(S'S1'
p184
I0
I1
tp185
Rp186
(I3
S'|'
p187
NNNI1
I1
I0
tp188
bg17
tp189
Rp190
atp191
Rp192
sg21
(g22
g23
Ntp193
Rp194
(dp195
g27
S'NT_1_A'
p196
sg29
I4001505077426012360
sbg139
((lp197
tp198
Rp199
sg21
(g22
g23
Ntp200
Rp201
(dp202
g27
S'NT_1_B'
p203
sg29
I4001505077426012363
sbg139
((lp204
tp205
Rp206
sg21
(g22
g23
Ntp207
Rp208
(dp209
g27
S'START'
p210
sg29
I-2931417125068050479
sbg139
((lp211
tp212
Rp213
sg21
(g22
g23
Ntp214
Rp215
(dp216
g27
g28
sg29
I-7985435147425591463
sbg139
((lp217
tp218
Rp219
sg21
(g22
g23
Ntp220
Rp221
(dp222
g27
S'NT_1'
p223
sg29
I-7985435147425591462
sbg139
((lp224
tp225
Rp226
sg21
(g22
g23
Ntp227
Rp228
(dp229
g27
S'NT_0'
p230
sg29
I-7985435147425591461
sbg139
((lp231
tp232
Rp233
sg21
(g22
g23
Ntp234
Rp235
(dp236
g27
S'NT_2_B'
p237
sg29
I4001504077298011996
sbg139
((lp238
tp239
Rp240
sg21
(g22
g23
Ntp241
Rp242
(dp243
g27
S'NT_2_A'
p244
sg29
I4001504077298011999
sbg139
((lp245
tp246
Rp247
ssS'_lhs_index'
p248
(dp249
g136
(lp250
g21
(cnltk.grammar
WeightedProduction
p251
g23
Ntp252
Rp253
(dp254
S'_rhs'
p255
(g14
tp256
sS'_ProbabilisticMixIn__prob'
p257
F0.31444444444444447
sS'_ProbabilisticMixIn__logprob'
p258
Nsg29
I-5744721369541703904
sS'_lhs'
p259
g136
sbag21
(g251
g23
Ntp260
Rp261
(dp262
g255
(g162
tp263
sg257
F0.09888888888888889
sg258
Nsg29
I2677882669967576993
sg259
g136
sbag21
(g251
g23
Ntp264
Rp265
(dp266
g255
(g148
tp267
sg257
F0.09333333333333334
sg258
Nsg29
I6261964738662341795
sg259
g136
sbag21
(g251
g23
Ntp268
Rp269
(dp270
g255
(g155
tp271
sg257
F0.49333333333333335
sg258
Nsg29
I1829454147850205557
sg259
g136
sbasg166
(lp272
g21
(g251
g23
Ntp273
Rp274
(dp275
g255
(g15
tp276
sg257
F0.49444444444444446
sg258
Nsg29
I1829452923303338182
sg259
g166
sbag21
(g251
g23
Ntp277
Rp278
(dp279
g255
(g176
tp280
sg257
F0.09666666666666666
sg258
Nsg29
I6261963586445464820
sg259
g166
sbag21
(g251
g23
Ntp281
Rp282
(dp283
g255
(g190
tp284
sg257
F0.10444444444444445
sg258
Nsg29
I2677886127185451018
sg259
g166
sbag21
(g251
g23
Ntp285
Rp286
(dp287
g255
(g183
tp288
sg257
F0.30444444444444446
sg258
Nsg29
I-5744724827036704329
sg259
g166
sbasg194
(lp289
g21
(g251
g23
Ntp290
Rp291
(dp292
g255
(g21
(g22
g23
Ntp293
Rp294
(dp295
g27
g230
sg29
I-7985435147425591461
sbtp296
sg257
F0.8
sg258
Nsg29
I-8993897179701577761
sg259
g194
sbag21
(g251
g23
Ntp297
Rp298
(dp299
g255
(g21
(g22
g23
Ntp300
Rp301
(dp302
g27
S'NT_1'
p303
sg29
I-7985435147425591462
sbtp304
sg257
F0.2
sg258
Nsg29
I-8993893757263066936
sg259
g194
sbasg201
(lp305
g21
(g251
g23
Ntp306
Rp307
(dp308
g255
(g294
tp309
sg257
F1.0
sg258
Nsg29
I-8993889395003414236
sg259
g201
sbasg208
(lp310
g21
(g251
g23
Ntp311
Rp312
(dp313
g255
(g25
tp314
sg257
F1.0
sg258
Nsg29
I-5931714460272417492
sg259
g208
sbasg215
(lp315
g21
(g251
g23
Ntp316
Rp317
(dp318
g255
(g242
g235
tp319
sg257
F1.0
sg258
Nsg29
I-5871559387561432942
sg259
g215
sbasg221
(lp320
g21
(g251
g23
Ntp321
Rp322
(dp323
g255
(g194
g201
tp324
sg257
F1.0
sg258
Nsg29
I-8313091015865541001
sg259
g221
sbasg228
(lp325
g21
(g251
g23
Ntp326
Rp327
(dp328
g255
(g136
g166
tp329
sg257
F1.0
sg258
Nsg29
I7829821044040254208
sg259
g228
sbasg235
(lp330
g21
(g251
g23
Ntp331
Rp332
(dp333
g255
(g21
(g22
g23
Ntp334
Rp335
(dp336
g27
g303
sg29
I-7985435147425591462
sbtp337
sg257
F1.0
sg258
Nsg29
I-3812068566330658956
sg259
g235
sbasg242
(lp338
g21
(g251
g23
Ntp339
Rp340
(dp341
g255
(g21
(g22
g23
Ntp342
Rp343
(dp344
g27
g303
sg29
I-7985435147425591462
sbtp345
sg257
F1.0
sg258
Nsg29
I-3812103865783252481
sg259
g242
sbassS'_all_unary_are_lexical'
p346
I00
sS'_empty_index'
p347
(dp348
sS'_categories'
p349
g139
((lp350
g136
ag166
ag194
ag201
ag208
ag215
ag221
ag228
ag235
ag242
atp351
Rp352
sS'_productions'
p353
(lp354
g253
ag261
ag265
ag269
ag274
ag278
ag282
ag286
ag327
ag291
ag298
ag307
ag322
ag340
ag332
ag317
ag312
asS'_is_lexical'
p355
I00
sS'_max_len'
p356
I2
sS'_min_len'
p357
I1
sS'_rhs_index'
p358
(dp359
g148
(lp360
g265
ag278
asg136
(lp361
g327
asg155
(lp362
g269
ag274
asg162
(lp363
g261
ag282
asg194
(lp364
g322
asg14
(lp365
g253
ag286
asg25
(lp366
g312
asg301
(lp367
g298
ag340
ag332
asg294
(lp368
g291
ag307
asg242
(lp369
g317
assS'_leftcorner_words'
p370
(dp371
g136
g139
((lp372
g148
ag155
ag14
ag162
atp373
Rp374
sg166
g139
((lp375
g176
ag15
ag183
ag190
atp376
Rp377
sg194
g139
((lp378
g148
ag155
ag14
ag162
atp379
Rp380
sg201
g139
((lp381
g148
ag155
ag14
ag162
atp382
Rp383
sg208
g139
((lp384
g148
ag155
ag14
ag162
atp385
Rp386
sg215
g139
((lp387
g148
ag155
ag14
ag162
atp388
Rp389
sg221
g139
((lp390
g148
ag155
ag14
ag162
atp391
Rp392
sg228
g139
((lp393
g148
ag155
ag14
ag162
atp394
Rp395
sg235
g139
((lp396
g148
ag155
ag14
ag162
atp397
Rp398
sg242
g139
((lp399
g148
ag155
ag14
ag162
atp400
Rp401
ssS'_lexical_index'
p402
(dp403
g148
g139
((lp404
g265
ag278
atp405
Rp406
sg155
g139
((lp407
g274
ag269
atp408
Rp409
sg14
g139
((lp410
g286
ag253
atp411
Rp412
sg162
g139
((lp413
g282
ag261
atp414
Rp415
ssS'_start'
p416
g21
(g22
g23
Ntp417
Rp418
(dp419
g27
g210
sg29
I-2931417125068050479
sbsS'_immediate_leftcorner_categories'
p420
(dp421
g136
g139
((lp422
g136
atp423
Rp424
sg166
g139
((lp425
g166
atp426
Rp427
sg194
g139
((lp428
g194
ag301
ag294
atp429
Rp430
sg201
g139
((lp431
g294
ag201
atp432
Rp433
sg208
g139
((lp434
g208
ag25
atp435
Rp436
sg215
g139
((lp437
g215
ag242
atp438
Rp439
sg221
g139
((lp440
g194
ag221
atp441
Rp442
sg228
g139
((lp443
g136
ag228
atp444
Rp445
sg235
g139
((lp446
g335
ag235
atp447
Rp448
sg242
g139
((lp449
g343
ag242
atp450
Rp451
ssS'_leftcorners'
p452
(dp453
g136
g139
((lp454
g136
atp455
Rp456
sg166
g139
((lp457
g166
atp458
Rp459
sg194
g139
((lp460
g194
ag136
ag301
ag294
atp461
Rp462
sg201
g139
((lp463
g136
ag294
ag201
atp464
Rp465
sg208
g139
((lp466
g136
ag194
ag208
ag25
ag343
ag294
ag242
atp467
Rp468
sg215
g139
((lp469
g136
ag194
ag215
ag343
ag294
ag242
atp470
Rp471
sg221
g139
((lp472
g136
ag194
ag221
ag294
atp473
Rp474
sg228
g139
((lp475
g136
ag228
atp476
Rp477
sg235
g139
((lp478
g136
ag194
ag335
ag294
ag235
atp479
Rp480
sg242
g139
((lp481
g136
ag194
ag343
ag294
ag242
atp482
Rp483
ssS'_leftcorner_parents'
p484
(dp485
g136
g139
((lp486
g136
ag194
ag201
ag208
ag215
ag221
ag228
ag235
ag242
atp487
Rp488
sg166
g139
((lp489
g166
atp490
Rp491
sg194
g139
((lp492
g194
ag208
ag215
ag221
ag235
ag242
atp493
Rp494
sg201
g139
((lp495
g201
atp496
Rp497
sg208
g139
((lp498
g208
atp499
Rp500
sg25
g139
((lp501
g208
ag215
atp502
Rp503
sg301
g139
((lp504
g194
ag208
ag215
ag221
ag235
ag242
atp505
Rp506
sg294
g139
((lp507
g194
ag201
ag208
ag215
ag221
ag228
ag235
ag242
atp508
Rp509
sg235
g139
((lp510
g235
atp511
Rp512
sg242
g139
((lp513
g208
ag242
ag215
atp514
Rp515
ssS'_is_nonlexical'
p516
I01
sbtp517
.