(cnumpy.core.multiarray
_reconstruct
p0
(cnumpy
ndarray
p1
(I0
tp2
S'b'
p3
tp4
Rp5
(I1
(I30
I10
tp6
cnumpy
dtype
p7
(S'O8'
p8
I0
I1
tp9
Rp10
(I3
S'|'
p11
NNNI-1
I-1
I63
tp12
bI00
(lp13
S'd'
p14
ag14
ag14
aS'c'
p15
ag14
ag14
aS'a'
p16
ag3
ag15
ag16
ag16
ag16
ag16
ag15
ag3
ag14
ag14
ag14
ag14
ag3
ag16
ag15
ag15
ag14
ag16
ag3
ag3
ag16
ag14
ag15
ag16
ag15
ag3
ag15
ag15
ag16
ag14
ag14
ag16
ag16
ag16
ag14
ag14
ag14
ag3
ag14
ag15
ag16
ag16
ag15
ag14
ag3
ag15
ag15
ag16
ag15
ag14
ag15
ag3
ag15
ag16
ag14
ag15
ag15
ag15
ag14
ag3
ag16
ag3
ag16
ag3
ag3
ag3
ag3
ag3
ag14
ag15
ag15
ag3
ag16
ag14
ag16
ag14
ag15
ag14
ag15
ag16
ag3
ag3
ag3
ag14
ag14
ag14
ag3
ag14
ag14
ag15
ag14
ag3
ag15
ag14
ag14
ag15
ag16
ag15
ag14
ag16
ag3
ag14
ag16
ag3
ag3
ag14
ag16
ag15
ag16
ag3
ag14
ag3
ag16
ag16
ag3
ag14
ag3
ag3
ag3
ag16
ag16
ag15
ag15
ag3
ag15
ag16
ag15
ag16
ag16
ag16
ag16
ag14
ag14
ag15
ag16
ag16
ag15
ag14
ag14
ag3
ag15
ag14
ag16
ag14
ag15
ag15
ag16
ag15
ag16
ag16
ag3
ag16
ag15
ag15
ag14
ag15
ag3
ag16
ag15
ag3
ag16
ag15
ag14
ag16
ag15
ag3
ag16
ag14
ag3
ag16
ag3
ag15
ag14
ag14
ag16
ag14
ag15
ag14
ag15
ag3
ag14
ag15
ag16
ag3
ag15
ag16
ag15
ag3
ag14
ag16
ag16
ag3
ag16
ag16
ag3
ag3
ag16
ag16
ag15
ag16
ag3
ag15
ag14
ag3
ag14
ag16
ag3
ag16
ag15
ag3
ag16
ag16
ag15
ag14
ag15
ag14
ag3
ag16
ag16
ag16
ag14
ag16
ag14
ag3
ag3
ag16
ag14
ag3
ag14
ag16
ag15
ag16
ag14
ag3
ag14
ag16
ag14
ag3
ag14
ag3
ag14
ag16
ag14
ag14
ag3
ag3
ag16
ag15
ag14
ag14
ag16
ag3
ag14
ag16
ag15
ag14
ag15
ag15
ag15
ag16
ag3
ag14
ag14
ag16
ag16
ag3
ag3
ag3
ag16
ag16
ag14
ag15
ag16
ag15
ag14
ag15
ag16
ag14
ag16
ag16
ag16
ag3
ag16
ag3
ag16
ag15
ag14
ag16
ag3
ag14
ag16
ag14
ag14
atp17
bccopy_reg
_reconstructor
p18
(cnltk.grammar
WeightedGrammar
p19
c__builtin__
object
p20
Ntp21
Rp22
(dp23
S'_immediate_leftcorner_words'
p24
(dp25
g18
(cnltk.grammar
Nonterminal
p26
g20
Ntp27
Rp28
(dp29
S'_symbol'
p30
S'NT_17_B'
p31
sS'_hash'
p32
I-5982784052675161075
sbc__builtin__
set
p33
((lp34
g3
atp35
Rp36
sg18
(g26
g20
Ntp37
Rp38
(dp39
g30
S'NT_17_A'
p40
sg32
I-5982784052675161074
sbg33
((lp41
tp42
Rp43
sg18
(g26
g20
Ntp44
Rp45
(dp46
g30
S'NT_12'
p47
sg32
I7278569315192930733
sbg33
((lp48
tp49
Rp50
sg18
(g26
g20
Ntp51
Rp52
(dp53
g30
S'NT_18_B'
p54
sg32
I-5982795052739161170
sbg33
((lp55
tp56
Rp57
sg18
(g26
g20
Ntp58
Rp59
(dp60
g30
S'NT_11_A'
p61
sg32
I-5982786052675161060
sbg33
((lp62
tp63
Rp64
sg18
(g26
g20
Ntp65
Rp66
(dp67
g30
S'NT_11_B'
p68
sg32
I-5982786052675161057
sbg33
((lp69
tp70
Rp71
sg18
(g26
g20
Ntp72
Rp73
(dp74
g30
S'NT_23_B'
p75
sg32
I-6982799052620160676
sbg33
((lp76
tp77
Rp78
sg18
(g26
g20
Ntp79
Rp80
(dp81
g30
S'NT_23_A'
p82
sg32
I-6982799052620160673
sbg33
((lp83
tp84
Rp85
sg18
(g26
g20
Ntp86
Rp87
(dp88
g30
S'NT_15_A'
p89
sg32
I-5982782052675160976
sbg33
((lp90
g3
ag14
atp91
Rp92
sg18
(g26
g20
Ntp93
Rp94
(dp95
g30
S'NT_15_B'
p96
sg32
I-5982782052675160973
sbg33
((lp97
tp98
Rp99
sg18
(g26
g20
Ntp100
Rp101
(dp102
g30
S'NT_13_A'
p103
sg32
I-5982788052611160726
sbg33
((lp104
g16
atp105
Rp106
sg18
(g26
g20
Ntp107
Rp108
(dp109
g30
S'NT_7_B'
p110
sg32
I4001499077426012289
sbg33
((lp111
tp112
Rp113
sg18
(g26
g20
Ntp114
Rp115
(dp116
g30
S'NT_7_A'
p117
sg32
I4001499077426012290
sbg33
((lp118
g16
ag15
atp119
Rp120
sg18
(g26
g20
Ntp121
Rp122
(dp123
g30
S'NT_4_A'
p124
sg32
I4001502077298012013
sbg33
((lp125
g14
atp126
Rp127
sg18
(g26
g20
Ntp128
Rp129
(dp130
g30
S'NT_9_A'
p131
sg32
I4001497077426012304
sbg33
((lp132
g14
atp133
Rp134
sg18
(g26
g20
Ntp135
Rp136
(dp137
g30
S'NT_9_B'
p138
sg32
I4001497077426012307
sbg33
((lp139
tp140
Rp141
sg18
(g26
g20
Ntp142
Rp143
(dp144
g30
S'NT_4_B'
p145
sg32
I4001502077298012014
sbg33
((lp146
g16
atp147
Rp148
sg18
(g26
g20
Ntp149
Rp150
(dp151
g30
S'NT_1_A'
p152
sg32
I4001505077426012360
sbg33
((lp153
g15
ag14
atp154
Rp155
sg18
(g26
g20
Ntp156
Rp157
(dp158
g30
S'NT_1_B'
p159
sg32
I4001505077426012363
sbg33
((lp160
g14
atp161
Rp162
sg18
(g26
g20
Ntp163
Rp164
(dp165
g30
S'NT_6_B'
p166
sg32
I4001500077298012024
sbg33
((lp167
g15
atp168
Rp169
sg18
(g26
g20
Ntp170
Rp171
(dp172
g30
S'NT_6_A'
p173
sg32
I4001500077298012027
sbg33
((lp174
tp175
Rp176
sg18
(g26
g20
Ntp177
Rp178
(dp179
g30
S'NT_3_B'
p180
sg32
I4001503077426012389
sbg33
((lp181
g3
atp182
Rp183
sg18
(g26
g20
Ntp184
Rp185
(dp186
g30
S'NT_3_A'
p187
sg32
I4001503077426012390
sbg33
((lp188
g16
atp189
Rp190
sg18
(g26
g20
Ntp191
Rp192
(dp193
g30
S'NT_5_A'
p194
sg32
I4001501077426012404
sbg33
((lp195
g15
atp196
Rp197
sg18
(g26
g20
Ntp198
Rp199
(dp200
g30
S'NT_5_B'
p201
sg32
I4001501077426012407
sbg33
((lp202
tp203
Rp204
sg18
(g26
g20
Ntp205
Rp206
(dp207
g30
S'NT_8_A'
p208
sg32
I4001498077298011913
sbg33
((lp209
g15
atp210
Rp211
sg18
(g26
g20
Ntp212
Rp213
(dp214
g30
S'NT_8_B'
p215
sg32
I4001498077298011914
sbg33
((lp216
g16
atp217
Rp218
sg18
(g26
g20
Ntp219
Rp220
(dp221
g30
S'NT_19_A'
p222
sg32
I-5982794052611160796
sbg33
((lp223
g3
atp224
Rp225
sg18
(g26
g20
Ntp226
Rp227
(dp228
g30
S'NT_19_B'
p229
sg32
I-5982794052611160793
sbg33
((lp230
tp231
Rp232
sg18
(g26
g20
Ntp233
Rp234
(dp235
g30
S'NT_28_A'
p236
sg32
I-6982788052556160720
sbg33
((lp237
tp238
Rp239
sg18
(g26
g20
Ntp240
Rp241
(dp242
g30
S'NT_28_B'
p243
sg32
I-6982788052556160717
sbg33
((lp244
g14
atp245
Rp246
sg18
(g26
g20
Ntp247
Rp248
(dp249
g30
S'NT_20_A'
p250
sg32
I-6982796052748161224
sbg33
((lp251
g16
atp252
Rp253
sg18
(g26
g20
Ntp254
Rp255
(dp256
g30
S'NT_20_B'
p257
sg32
I-6982796052748161221
sbg33
((lp258
tp259
Rp260
sg18
(g26
g20
Ntp261
Rp262
(dp263
g30
S'NT_0_A'
p264
sg32
I4001506077298011969
sbg33
((lp265
g16
ag3
atp266
Rp267
sg18
(g26
g20
Ntp268
Rp269
(dp270
g30
S'NT_0_B'
p271
sg32
I4001506077298011970
sbg33
((lp272
g16
atp273
Rp274
sg18
(g26
g20
Ntp275
Rp276
(dp277
g30
S'NT_2_B'
p278
sg32
I4001504077298011996
sbg33
((lp279
g15
atp280
Rp281
sg18
(g26
g20
Ntp282
Rp283
(dp284
g30
S'NT_9'
p285
sg32
I-7985435147425591470
sbg33
((lp286
tp287
Rp288
sg18
(g26
g20
Ntp289
Rp290
(dp291
g30
S'NT_8'
p292
sg32
I-7985435147425591469
sbg33
((lp293
tp294
Rp295
sg18
(g26
g20
Ntp296
Rp297
(dp298
g30
S'NT_3'
p299
sg32
I-7985435147425591464
sbg33
((lp300
tp301
Rp302
sg18
(g26
g20
Ntp303
Rp304
(dp305
g30
S'NT_2'
p306
sg32
I-7985435147425591463
sbg33
((lp307
tp308
Rp309
sg18
(g26
g20
Ntp310
Rp311
(dp312
g30
S'NT_1'
p313
sg32
I-7985435147425591462
sbg33
((lp314
tp315
Rp316
sg18
(g26
g20
Ntp317
Rp318
(dp319
g30
S'NT_0'
p320
sg32
I-7985435147425591461
sbg33
((lp321
tp322
Rp323
sg18
(g26
g20
Ntp324
Rp325
(dp326
g30
S'NT_7'
p327
sg32
I-7985435147425591460
sbg33
((lp328
tp329
Rp330
sg18
(g26
g20
Ntp331
Rp332
(dp333
g30
S'NT_6'
p334
sg32
I-7985435147425591459
sbg33
((lp335
tp336
Rp337
sg18
(g26
g20
Ntp338
Rp339
(dp340
g30
S'NT_5'
p341
sg32
I-7985435147425591458
sbg33
((lp342
tp343
Rp344
sg18
(g26
g20
Ntp345
Rp346
(dp347
g30
S'NT_4'
p348
sg32
I-7985435147425591457
sbg33
((lp349
tp350
Rp351
sg18
(g26
g20
Ntp352
Rp353
(dp354
g30
S'NT_22'
p355
sg32
I7278569315191930720
sbg33
((lp356
tp357
Rp358
sg18
(g26
g20
Ntp359
Rp360
(dp361
g30
S'NT_23'
p362
sg32
I7278569315191930721
sbg33
((lp363
tp364
Rp365
sg18
(g26
g20
Ntp366
Rp367
(dp368
g30
S'NT_20'
p369
sg32
I7278569315191930722
sbg33
((lp370
tp371
Rp372
sg18
(g26
g20
Ntp373
Rp374
(dp375
g30
S'NT_21'
p376
sg32
I7278569315191930723
sbg33
((lp377
tp378
Rp379
sg18
(g26
g20
Ntp380
Rp381
(dp382
g30
S'NT_26'
p383
sg32
I7278569315191930724
sbg33
((lp384
tp385
Rp386
sg18
(g26
g20
Ntp387
Rp388
(dp389
g30
S'NT_27'
p390
sg32
I7278569315191930725
sbg33
((lp391
tp392
Rp393
sg18
(g26
g20
Ntp394
Rp395
(dp396
g30
S'NT_24'
p397
sg32
I7278569315191930726
sbg33
((lp398
tp399
Rp400
sg18
(g26
g20
Ntp401
Rp402
(dp403
g30
S'NT_25'
p404
sg32
I7278569315191930727
sbg33
((lp405
tp406
Rp407
sg18
(g26
g20
Ntp408
Rp409
(dp410
g30
S'NT_13_B'
p411
sg32
I-5982788052611160727
sbg33
((lp412
tp413
Rp414
sg18
(g26
g20
Ntp415
Rp416
(dp417
g30
S'NT_28'
p418
sg32
I7278569315191930730
sbg33
((lp419
tp420
Rp421
sg18
(g26
g20
Ntp422
Rp423
(dp424
g30
S'NT_29'
p425
sg32
I7278569315191930731
sbg33
((lp426
tp427
Rp428
sg18
(g26
g20
Ntp429
Rp430
(dp431
g30
S'NT_25_A'
p432
sg32
I-6982801052620160659
sbg33
((lp433
tp434
Rp435
sg18
(g26
g20
Ntp436
Rp437
(dp438
g30
S'NT_25_B'
p439
sg32
I-6982801052620160658
sbg33
((lp440
tp441
Rp442
sg18
(g26
g20
Ntp443
Rp444
(dp445
g30
S'NT_27_B'
p446
sg32
I-6982803052620160648
sbg33
((lp447
tp448
Rp449
sg18
(g26
g20
Ntp450
Rp451
(dp452
g30
S'NT_27_A'
p453
sg32
I-6982803052620160645
sbg33
((lp454
tp455
Rp456
sg18
(g26
g20
Ntp457
Rp458
(dp459
g30
S'NT_21_A'
p460
sg32
I-6982797052620160703
sbg33
((lp461
tp462
Rp463
sg18
(g26
g20
Ntp464
Rp465
(dp466
g30
S'NT_21_B'
p467
sg32
I-6982797052620160702
sbg33
((lp468
g15
atp469
Rp470
sg18
(g26
g20
Ntp471
Rp472
(dp473
g30
S'NT_16_B'
p474
sg32
I-5982785052547160684
sbg33
((lp475
tp476
Rp477
sg18
(g26
g20
Ntp478
Rp479
(dp480
g30
S'NT_16_A'
p481
sg32
I-5982785052547160681
sbg33
((lp482
tp483
Rp484
sg18
(g26
g20
Ntp485
Rp486
(dp487
g30
S'NT_2_A'
p488
sg32
I4001504077298011999
sbg33
((lp489
g15
ag3
atp490
Rp491
sg18
(g26
g20
Ntp492
Rp493
(dp494
g30
S'NT_19'
p495
sg32
I7278569315192930726
sbg33
((lp496
tp497
Rp498
sg18
(g26
g20
Ntp499
Rp500
(dp501
g30
S'NT_18'
p502
sg32
I7278569315192930727
sbg33
((lp503
tp504
Rp505
sg18
(g26
g20
Ntp506
Rp507
(dp508
g30
S'NT_17'
p509
sg32
I7278569315192930728
sbg33
((lp510
tp511
Rp512
sg18
(g26
g20
Ntp513
Rp514
(dp515
g30
S'NT_16'
p516
sg32
I7278569315192930729
sbg33
((lp517
tp518
Rp519
sg18
(g26
g20
Ntp520
Rp521
(dp522
g30
S'NT_15'
p523
sg32
I7278569315192930730
sbg33
((lp524
tp525
Rp526
sg18
(g26
g20
Ntp527
Rp528
(dp529
g30
S'NT_14'
p530
sg32
I7278569315192930731
sbg33
((lp531
tp532
Rp533
sg18
(g26
g20
Ntp534
Rp535
(dp536
g30
S'NT_13'
p537
sg32
I7278569315192930732
sbg33
((lp538
tp539
Rp540
sg18
(g26
g20
Ntp541
Rp542
(dp543
g30
S'NT_18_A'
p544
sg32
I-5982795052739161171
sbg33
((lp545
g3
atp546
Rp547
sg18
(g26
g20
Ntp548
Rp549
(dp550
g30
S'NT_11'
p551
sg32
I7278569315192930734
sbg33
((lp552
tp553
Rp554
sg18
(g26
g20
Ntp555
Rp556
(dp557
g30
S'NT_10'
p558
sg32
I7278569315192930735
sbg33
((lp559
tp560
Rp561
sg18
(g26
g20
Ntp562
Rp563
(dp564
g30
S'NT_29_A'
p565
sg32
I-6982789052684161095
sbg33
((lp566
g16
atp567
Rp568
sg18
(g26
g20
Ntp569
Rp570
(dp571
g30
S'NT_29_B'
p572
sg32
I-6982789052684161094
sbg33
((lp573
g14
atp574
Rp575
sg18
(g26
g20
Ntp576
Rp577
(dp578
g30
S'START'
p579
sg32
I-2931417125068050479
sbg33
((lp580
tp581
Rp582
sg18
(g26
g20
Ntp583
Rp584
(dp585
g30
S'NT_22_B'
p586
sg32
I-6982798052748161067
sbg33
((lp587
tp588
Rp589
sg18
(g26
g20
Ntp590
Rp591
(dp592
g30
S'NT_22_A'
p593
sg32
I-6982798052748161066
sbg33
((lp594
tp595
Rp596
sg18
(g26
g20
Ntp597
Rp598
(dp599
g30
S'NT_24_A'
p600
sg32
I-6982800052748161052
sbg33
((lp601
tp602
Rp603
sg18
(g26
g20
Ntp604
Rp605
(dp606
g30
S'NT_10_A'
p607
sg32
I-5982787052739161115
sbg33
((lp608
g16
ag14
atp609
Rp610
sg18
(g26
g20
Ntp611
Rp612
(dp613
g30
S'NT_10_B'
p614
sg32
I-5982787052739161114
sbg33
((lp615
g15
atp616
Rp617
sg18
(g26
g20
Ntp618
Rp619
(dp620
g30
S'NT_24_B'
p621
sg32
I-6982800052748161049
sbg33
((lp622
tp623
Rp624
sg18
(g26
g20
Ntp625
Rp626
(dp627
g30
S'NT_12_B'
p628
sg32
I-5982789052739161104
sbg33
((lp629
g14
atp630
Rp631
sg18
(g26
g20
Ntp632
Rp633
(dp634
g30
S'NT_26_B'
p635
sg32
I-6982802052748161039
sbg33
((lp636
tp637
Rp638
sg18
(g26
g20
Ntp639
Rp640
(dp641
g30
S'NT_26_A'
p642
sg32
I-6982802052748161038
sbg33
((lp643
tp644
Rp645
sg18
(g26
g20
Ntp646
Rp647
(dp648
g30
S'NT_12_A'
p649
sg32
I-5982789052739161101
sbg33
((lp650
tp651
Rp652
sg18
(g26
g20
Ntp653
Rp654
(dp655
g30
S'NT_14_A'
p656
sg32
I-5982783052547160583
sbg33
((lp657
tp658
Rp659
sg18
(g26
g20
Ntp660
Rp661
(dp662
g30
S'NT_14_B'
p663
sg32
I-5982783052547160582
sbg33
((lp664
tp665
Rp666
ssS'_lhs_index'
p667
(dp668
g28
(lp669
g18
(cnltk.grammar
WeightedProduction
p670
g20
Ntp671
Rp672
(dp673
S'_rhs'
p674
(g3
tp675
sS'_ProbabilisticMixIn__prob'
p676
F1.0
sS'_ProbabilisticMixIn__logprob'
p677
Nsg32
I6568906448984665634
sS'_lhs'
p678
g28
sbasg38
(lp679
g18
(g670
g20
Ntp680
Rp681
(dp682
g674
(g18
(g26
g20
Ntp683
Rp684
(dp685
g30
S'NT_0'
p686
sg32
I-7985435147425591461
sbtp687
sg676
F0.5
sg677
Nsg32
I5228373929423919465
sg678
g38
sbag18
(g670
g20
Ntp688
Rp689
(dp690
g674
(g18
(g26
g20
Ntp691
Rp692
(dp693
g30
g516
sg32
I7278569315192930729
sbtp694
sg676
F0.5
sg677
Nsg32
I399885970214469015
sg678
g38
sbasg45
(lp695
g18
(g670
g20
Ntp696
Rp697
(dp698
g674
(g647
g626
tp699
sg676
F1.0
sg677
Nsg32
I454899931181262678
sg678
g45
sbasg549
(lp700
g18
(g670
g20
Ntp701
Rp702
(dp703
g674
(g59
g66
tp704
sg676
F1.0
sg677
Nsg32
I2995169139168931131
sg678
g549
sbasg59
(lp705
g18
(g670
g20
Ntp706
Rp707
(dp708
g674
(g18
(g26
g20
Ntp709
Rp710
(dp711
g30
g558
sg32
I7278569315192930735
sbtp712
sg676
F0.5
sg677
Nsg32
I-2007964196199346377
sg678
g59
sbag18
(g670
g20
Ntp713
Rp714
(dp715
g674
(g18
(g26
g20
Ntp716
Rp717
(dp718
g30
g292
sg32
I-7985435147425591469
sbtp719
sg676
F0.5
sg677
Nsg32
I4109268751921578955
sg678
g59
sbasg66
(lp720
g18
(g670
g20
Ntp721
Rp722
(dp723
g674
(g18
(g26
g20
Ntp724
Rp725
(dp726
g30
g313
sg32
I-7985435147425591462
sbtp727
sg676
F1.0
sg677
Nsg32
I4109267118265781055
sg678
g66
sbasg73
(lp728
g18
(g670
g20
Ntp729
Rp730
(dp731
g674
(g18
(g26
g20
Ntp732
Rp733
(dp734
g30
g299
sg32
I-7985435147425591464
sbtp735
sg676
F1.0
sg677
Nsg32
I5701061535243323574
sg678
g73
sbasg486
(lp736
g18
(g670
g20
Ntp737
Rp738
(dp739
g674
(g15
tp740
sg676
F0.5333333333333333
sg677
Nsg32
I-1409277061960915705
sg678
g486
sbag18
(g670
g20
Ntp741
Rp742
(dp743
g674
(g3
tp744
sg676
F0.4666666666666667
sg677
Nsg32
I-5834088612736481808
sg678
g486
sbasg87
(lp745
g18
(g670
g20
Ntp746
Rp747
(dp748
g674
(g3
tp749
sg676
F0.3333333333333333
sg677
Nsg32
I-8638663976667060673
sg678
g87
sbag18
(g670
g20
Ntp750
Rp751
(dp752
g674
(g14
tp753
sg676
F0.6666666666666666
sg677
Nsg32
I-7190475071138601059
sg678
g87
sbasg94
(lp754
g18
(g670
g20
Ntp755
Rp756
(dp757
g674
(g18
(g26
g20
Ntp758
Rp759
(dp760
g30
g530
sg32
I7278569315192930731
sbtp761
sg676
F1.0
sg677
Nsg32
I6152520672050991260
sg678
g94
sbasg416
(lp762
g18
(g670
g20
Ntp763
Rp764
(dp765
g674
(g234
g241
tp766
sg676
F1.0
sg677
Nsg32
I-9059698076695467401
sg678
g416
sbasg108
(lp767
g18
(g670
g20
Ntp768
Rp769
(dp770
g674
(g18
(g26
g20
Ntp771
Rp772
(dp773
g30
g686
sg32
I-7985435147425591461
sbtp774
sg676
F1.0
sg677
Nsg32
I1566811180183551022
sg678
g108
sbasg115
(lp775
g18
(g670
g20
Ntp776
Rp777
(dp778
g674
(g16
tp779
sg676
F0.125
sg677
Nsg32
I-5899201419554160364
sg678
g115
sbag18
(g670
g20
Ntp780
Rp781
(dp782
g674
(g15
tp783
sg676
F0.875
sg677
Nsg32
I-7424963540880656154
sg678
g115
sbasg122
(lp784
g18
(g670
g20
Ntp785
Rp786
(dp787
g674
(g14
tp788
sg676
F0.9166666666666666
sg677
Nsg32
I4095003081043842644
sg678
g122
sbag18
(g670
g20
Ntp789
Rp790
(dp791
g674
(g725
tp792
sg676
F0.08333333333333333
sg677
Nsg32
I-5864629728054350879
sg678
g122
sbasg129
(lp793
g18
(g670
g20
Ntp794
Rp795
(dp796
g674
(g14
tp797
sg676
F0.75
sg677
Nsg32
I8910839098145468093
sg678
g129
sbag18
(g670
g20
Ntp798
Rp799
(dp800
g674
(g18
(g26
g20
Ntp801
Rp802
(dp803
g30
g341
sg32
I-7985435147425591458
sbtp804
sg676
F0.25
sg677
Nsg32
I8705380892260412444
sg678
g129
sbasg136
(lp805
g18
(g670
g20
Ntp806
Rp807
(dp808
g674
(g717
tp809
sg676
F1.0
sg677
Nsg32
I8705367176001827044
sg678
g136
sbasg143
(lp810
g18
(g670
g20
Ntp811
Rp812
(dp813
g674
(g16
tp814
sg676
F1.0
sg677
Nsg32
I5255546026512687768
sg678
g143
sbasg150
(lp815
g18
(g670
g20
Ntp816
Rp817
(dp818
g674
(g15
tp819
sg676
F0.5135135135135135
sg677
Nsg32
I7996992481145989776
sg678
g150
sbag18
(g670
g20
Ntp820
Rp821
(dp822
g674
(g14
tp823
sg676
F0.4864864864864865
sg677
Nsg32
I2435087031495609013
sg678
g150
sbasg157
(lp824
g18
(g670
g20
Ntp825
Rp826
(dp827
g674
(g14
tp828
sg676
F1.0
sg677
Nsg32
I2435078640602930938
sg678
g157
sbasg164
(lp829
g18
(g670
g20
Ntp830
Rp831
(dp832
g674
(g15
tp833
sg676
F1.0
sg677
Nsg32
I-8597056780548525632
sg678
g164
sbasg171
(lp834
g18
(g670
g20
Ntp835
Rp836
(dp837
g674
(g18
(g26
g20
Ntp838
Rp839
(dp840
g30
g306
sg32
I-7985435147425591463
sbtp841
sg676
F0.16666666666666666
sg677
Nsg32
I-7658610331728894634
sg678
g171
sbag18
(g670
g20
Ntp842
Rp843
(dp844
g674
(g725
tp845
sg676
F0.8333333333333334
sg677
Nsg32
I-7658609284796234109
sg678
g171
sbasg178
(lp846
g18
(g670
g20
Ntp847
Rp848
(dp849
g674
(g3
tp850
sg676
F1.0
sg677
Nsg32
I-7262458387624192630
sg678
g178
sbasg185
(lp851
g18
(g670
g20
Ntp852
Rp853
(dp854
g674
(g16
tp855
sg676
F0.9090909090909091
sg677
Nsg32
I-763081739948075824
sg678
g185
sbag18
(g670
g20
Ntp856
Rp857
(dp858
g674
(g725
tp859
sg676
F0.09090909090909091
sg677
Nsg32
I-1684043330946727254
sg678
g185
sbasg192
(lp860
g18
(g670
g20
Ntp861
Rp862
(dp863
g674
(g15
tp864
sg676
F0.5
sg677
Nsg32
I4747195838148304724
sg678
g192
sbag18
(g670
g20
Ntp865
Rp866
(dp867
g674
(g725
tp868
sg676
F0.5
sg677
Nsg32
I900161267694517580
sg678
g192
sbasg199
(lp869
g18
(g670
g20
Ntp870
Rp871
(dp872
g674
(g839
tp873
sg676
F1.0
sg677
Nsg32
I900163160379062530
sg678
g199
sbasg206
(lp874
g18
(g670
g20
Ntp875
Rp876
(dp877
g674
(g15
tp878
sg676
F0.5714285714285714
sg677
Nsg32
I869492762748717997
sg678
g206
sbag18
(g670
g20
Ntp879
Rp880
(dp881
g674
(g18
(g26
g20
Ntp882
Rp883
(dp884
g30
g334
sg32
I-7985435147425591459
sbtp885
sg676
F0.42857142857142855
sg677
Nsg32
I-7492342943638105872
sg678
g206
sbasg213
(lp886
g18
(g670
g20
Ntp887
Rp888
(dp889
g674
(g16
tp890
sg676
F1.0
sg677
Nsg32
I-216800975320789284
sg678
g213
sbasg220
(lp891
g18
(g670
g20
Ntp892
Rp893
(dp894
g674
(g18
(g26
g20
Ntp895
Rp896
(dp897
g30
g285
sg32
I-7985435147425591470
sbtp898
sg676
F0.5
sg677
Nsg32
I-3193177296422791852
sg678
g220
sbag18
(g670
g20
Ntp899
Rp900
(dp901
g674
(g3
tp902
sg676
F0.5
sg677
Nsg32
I5448520422502951859
sg678
g220
sbasg227
(lp903
g18
(g670
g20
Ntp904
Rp905
(dp906
g674
(g725
tp907
sg676
F1.0
sg677
Nsg32
I-3193184662634110777
sg678
g227
sbasg234
(lp908
g18
(g670
g20
Ntp909
Rp910
(dp911
g674
(g733
tp912
sg676
F0.5
sg677
Nsg32
I2317140292396561490
sg678
g234
sbag18
(g670
g20
Ntp913
Rp914
(dp915
g674
(g18
(g26
g20
Ntp916
Rp917
(dp918
g30
g537
sg32
I7278569315192930732
sbtp919
sg676
F0.5
sg677
Nsg32
I-2070729781586988466
sg678
g234
sbasg241
(lp920
g18
(g670
g20
Ntp921
Rp922
(dp923
g674
(g14
tp924
sg676
F1.0
sg677
Nsg32
I2638052390130653250
sg678
g241
sbasg248
(lp925
g18
(g670
g20
Ntp926
Rp927
(dp928
g674
(g16
tp929
sg676
F0.3333333333333333
sg677
Nsg32
I-5235710386918198062
sg678
g248
sbag18
(g670
g20
Ntp930
Rp931
(dp932
g674
(g18
(g26
g20
Ntp933
Rp934
(dp935
g30
g495
sg32
I7278569315192930726
sbtp936
sg676
F0.6666666666666666
sg677
Nsg32
I4801819129450801820
sg678
g248
sbasg255
(lp937
g18
(g670
g20
Ntp938
Rp939
(dp940
g674
(g802
tp941
sg676
F1.0
sg677
Nsg32
I-2260045341424480945
sg678
g255
sbasg458
(lp942
g18
(g670
g20
Ntp943
Rp944
(dp945
g674
(g18
(g26
g20
Ntp946
Rp947
(dp948
g30
g369
sg32
I7278569315191930722
sbtp949
sg676
F0.5
sg677
Nsg32
I-959798673365101355
sg678
g458
sbag18
(g670
g20
Ntp950
Rp951
(dp952
g674
(g18
(g26
g20
Ntp953
Rp954
(dp955
g30
g348
sg32
I-7985435147425591457
sbtp956
sg676
F0.5
sg677
Nsg32
I-1459721886331019190
sg678
g458
sbasg269
(lp957
g18
(g670
g20
Ntp958
Rp959
(dp960
g674
(g16
tp961
sg676
F0.9302325581395349
sg677
Nsg32
I7183337801705057620
sg678
g269
sbag18
(g670
g20
Ntp962
Rp963
(dp964
g674
(g18
(g26
g20
Ntp965
Rp966
(dp967
g30
g285
sg32
I-7985435147425591470
sbtp968
sg676
F0.06976744186046512
sg677
Nsg32
I-2787738668948519722
sg678
g269
sbasg325
(lp969
g18
(g670
g20
Ntp970
Rp971
(dp972
g674
(g115
g108
tp973
sg676
F1.0
sg677
Nsg32
I3245499106526544277
sg678
g325
sbasg283
(lp974
g18
(g670
g20
Ntp975
Rp976
(dp977
g674
(g129
g136
tp978
sg676
F1.0
sg677
Nsg32
I8075823227036852623
sg678
g283
sbasg290
(lp979
g18
(g670
g20
Ntp980
Rp981
(dp982
g674
(g206
g213
tp983
sg676
F1.0
sg677
Nsg32
I-3681181833340710680
sg678
g290
sbasg297
(lp984
g18
(g670
g20
Ntp985
Rp986
(dp987
g674
(g185
g178
tp988
sg676
F1.0
sg677
Nsg32
I-7667768775844780991
sg678
g297
sbasg304
(lp989
g18
(g670
g20
Ntp990
Rp991
(dp992
g674
(g486
g276
tp993
sg676
F1.0
sg677
Nsg32
I-5871559387561432942
sg678
g304
sbasg311
(lp994
g18
(g670
g20
Ntp995
Rp996
(dp997
g674
(g150
g157
tp998
sg676
F1.0
sg677
Nsg32
I-8313091015865541001
sg678
g311
sbasg318
(lp999
g18
(g670
g20
Ntp1000
Rp1001
(dp1002
g674
(g262
g269
tp1003
sg676
F1.0
sg677
Nsg32
I7829821044040254208
sg678
g318
sbasg276
(lp1004
g18
(g670
g20
Ntp1005
Rp1006
(dp1007
g674
(g15
tp1008
sg676
F1.0
sg677
Nsg32
I-1409289741419274580
sg678
g276
sbasg332
(lp1009
g18
(g670
g20
Ntp1010
Rp1011
(dp1012
g674
(g171
g164
tp1013
sg676
F1.0
sg677
Nsg32
I-9219463718024500762
sg678
g332
sbasg339
(lp1014
g18
(g670
g20
Ntp1015
Rp1016
(dp1017
g674
(g192
g199
tp1018
sg676
F1.0
sg677
Nsg32
I8088976844589319115
sg678
g339
sbasg80
(lp1019
g18
(g670
g20
Ntp1020
Rp1021
(dp1022
g674
(g18
(g26
g20
Ntp1023
Rp1024
(dp1025
g30
g355
sg32
I7278569315191930720
sbtp1026
sg676
F0.3333333333333333
sg677
Nsg32
I-676611075685956519
sg678
g80
sbag18
(g670
g20
Ntp1027
Rp1028
(dp1029
g674
(g18
(g26
g20
Ntp1030
Rp1031
(dp1032
g30
g376
sg32
I7278569315191930723
sbtp1033
sg676
F0.6666666666666666
sg677
Nsg32
I-676616913973859344
sg678
g80
sbasg353
(lp1034
g18
(g670
g20
Ntp1035
Rp1036
(dp1037
g674
(g591
g584
tp1038
sg676
F1.0
sg677
Nsg32
I-3513424405222300583
sg678
g353
sbasg360
(lp1039
g18
(g670
g20
Ntp1040
Rp1041
(dp1042
g674
(g80
g73
tp1043
sg676
F1.0
sg677
Nsg32
I1936856316531670810
sg678
g360
sbasg367
(lp1044
g18
(g670
g20
Ntp1045
Rp1046
(dp1047
g674
(g248
g255
tp1048
sg676
F1.0
sg677
Nsg32
I-267608576429217265
sg678
g367
sbasg374
(lp1049
g18
(g670
g20
Ntp1050
Rp1051
(dp1052
g674
(g458
g465
tp1053
sg676
F1.0
sg677
Nsg32
I-3530063721222528632
sg678
g374
sbasg381
(lp1054
g18
(g670
g20
Ntp1055
Rp1056
(dp1057
g674
(g640
g633
tp1058
sg676
F1.0
sg677
Nsg32
I1150193078450631597
sg678
g381
sbasg388
(lp1059
g18
(g670
g20
Ntp1060
Rp1061
(dp1062
g674
(g451
g444
tp1063
sg676
F1.0
sg677
Nsg32
I-6192218868349627650
sg678
g388
sbasg395
(lp1064
g18
(g670
g20
Ntp1065
Rp1066
(dp1067
g674
(g598
g619
tp1068
sg676
F1.0
sg677
Nsg32
I5815572340607792179
sg678
g395
sbasg402
(lp1069
g18
(g670
g20
Ntp1070
Rp1071
(dp1072
g674
(g430
g437
tp1073
sg676
F1.0
sg677
Nsg32
I8860399496153059772
sg678
g402
sbasg409
(lp1074
g18
(g670
g20
Ntp1075
Rp1076
(dp1077
g674
(g725
tp1078
sg676
F1.0
sg677
Nsg32
I5763504936143617413
sg678
g409
sbasg101
(lp1079
g18
(g670
g20
Ntp1080
Rp1081
(dp1082
g674
(g18
(g26
g20
Ntp1083
Rp1084
(dp1085
g30
g327
sg32
I-7985435147425591460
sbtp1086
sg676
F0.6666666666666666
sg677
Nsg32
I5763505924167432488
sg678
g101
sbag18
(g670
g20
Ntp1087
Rp1088
(dp1089
g674
(g16
tp1090
sg676
F0.3333333333333333
sg677
Nsg32
I6709678862015430844
sg678
g101
sbasg423
(lp1091
g18
(g670
g20
Ntp1092
Rp1093
(dp1094
g674
(g563
g570
tp1095
sg676
F1.0
sg677
Nsg32
I-2101210385747696512
sg678
g423
sbasg430
(lp1096
g18
(g670
g20
Ntp1097
Rp1098
(dp1099
g674
(g883
tp1100
sg676
F0.6666666666666666
sg677
Nsg32
I8011751099659658908
sg678
g430
sbag18
(g670
g20
Ntp1101
Rp1102
(dp1103
g674
(g18
(g26
g20
Ntp1104
Rp1105
(dp1106
g30
g397
sg32
I7278569315191930726
sbtp1107
sg676
F0.3333333333333333
sg677
Nsg32
I89777864749465661
sg678
g430
sbasg437
(lp1108
g18
(g670
g20
Ntp1109
Rp1110
(dp1111
g674
(g772
tp1112
sg676
F1.0
sg677
Nsg32
I8011749872008109833
sg678
g437
sbasg444
(lp1113
g18
(g670
g20
Ntp1114
Rp1115
(dp1116
g674
(g692
tp1117
sg676
F1.0
sg677
Nsg32
I3122068387236397745
sg678
g444
sbasg451
(lp1118
g18
(g670
g20
Ntp1119
Rp1120
(dp1121
g674
(g733
tp1122
sg676
F0.5
sg677
Nsg32
I7981545363745934725
sg678
g451
sbag18
(g670
g20
Ntp1123
Rp1124
(dp1125
g674
(g18
(g26
g20
Ntp1126
Rp1127
(dp1128
g30
g383
sg32
I7278569315191930724
sbtp1129
sg676
F0.5
sg677
Nsg32
I1984463494536565545
sg678
g451
sbasg262
(lp1130
g18
(g670
g20
Ntp1131
Rp1132
(dp1133
g674
(g16
tp1134
sg676
F0.4883720930232558
sg677
Nsg32
I7183336682732523395
sg678
g262
sbag18
(g670
g20
Ntp1135
Rp1136
(dp1137
g674
(g3
tp1138
sg676
F0.5116279069767442
sg677
Nsg32
I-7161440588531040090
sg678
g262
sbasg465
(lp1139
g18
(g670
g20
Ntp1140
Rp1141
(dp1142
g674
(g15
tp1143
sg676
F1.0
sg677
Nsg32
I-6988724451078040794
sg678
g465
sbasg472
(lp1144
g18
(g670
g20
Ntp1145
Rp1146
(dp1147
g674
(g710
tp1148
sg676
F1.0
sg677
Nsg32
I-5383387797830857745
sg678
g472
sbasg479
(lp1149
g18
(g670
g20
Ntp1150
Rp1151
(dp1152
g674
(g839
tp1153
sg676
F0.25
sg677
Nsg32
I-6381753117577822302
sg678
g479
sbag18
(g670
g20
Ntp1154
Rp1155
(dp1156
g674
(g772
tp1157
sg676
F0.75
sg677
Nsg32
I-6381755282604006752
sg678
g479
sbasg346
(lp1158
g18
(g670
g20
Ntp1159
Rp1160
(dp1161
g674
(g122
g143
tp1162
sg676
F1.0
sg677
Nsg32
I2783311938750496004
sg678
g346
sbasg493
(lp1163
g18
(g670
g20
Ntp1164
Rp1165
(dp1166
g674
(g220
g227
tp1167
sg676
F1.0
sg677
Nsg32
I-3996156905789164045
sg678
g493
sbasg500
(lp1168
g18
(g670
g20
Ntp1169
Rp1170
(dp1171
g674
(g542
g52
tp1172
sg676
F1.0
sg677
Nsg32
I833674610620568700
sg678
g500
sbasg507
(lp1173
g18
(g670
g20
Ntp1174
Rp1175
(dp1176
g674
(g38
g28
tp1177
sg676
F1.0
sg677
Nsg32
I8240675520268100801
sg678
g507
sbasg514
(lp1178
g18
(g670
g20
Ntp1179
Rp1180
(dp1181
g674
(g479
g472
tp1182
sg676
F1.0
sg677
Nsg32
I-4320731705107735246
sg678
g514
sbasg521
(lp1183
g18
(g670
g20
Ntp1184
Rp1185
(dp1186
g674
(g87
g94
tp1187
sg676
F1.0
sg677
Nsg32
I7243575411026396215
sg678
g521
sbasg528
(lp1188
g18
(g670
g20
Ntp1189
Rp1190
(dp1191
g674
(g654
g661
tp1192
sg676
F1.0
sg677
Nsg32
I7675532848841043520
sg678
g528
sbasg535
(lp1193
g18
(g670
g20
Ntp1194
Rp1195
(dp1196
g674
(g101
g409
tp1197
sg676
F1.0
sg677
Nsg32
I4140068937689221365
sg678
g535
sbasg542
(lp1198
g18
(g670
g20
Ntp1199
Rp1200
(dp1201
g674
(g3
tp1202
sg676
F0.3333333333333333
sg677
Nsg32
I7975799915134970818
sg678
g542
sbag18
(g670
g20
Ntp1203
Rp1204
(dp1205
g674
(g18
(g26
g20
Ntp1206
Rp1207
(dp1208
g30
g509
sg32
I7278569315192930728
sbtp1209
sg676
F0.6666666666666666
sg677
Nsg32
I-7648051636507289857
sg678
g542
sbasg52
(lp1210
g18
(g670
g20
Ntp1211
Rp1212
(dp1213
g674
(g18
(g26
g20
Ntp1214
Rp1215
(dp1216
g30
g523
sg32
I7278569315192930730
sbtp1217
sg676
F1.0
sg677
Nsg32
I-7648052716435312382
sg678
g52
sbasg556
(lp1218
g18
(g670
g20
Ntp1219
Rp1220
(dp1221
g674
(g605
g612
tp1222
sg676
F1.0
sg677
Nsg32
I-3304671655513532044
sg678
g556
sbasg563
(lp1223
g18
(g670
g20
Ntp1224
Rp1225
(dp1226
g674
(g16
tp1227
sg676
F0.5
sg677
Nsg32
I-3824730566361357765
sg678
g563
sbag18
(g670
g20
Ntp1228
Rp1229
(dp1230
g674
(g1084
tp1231
sg676
F0.5
sg677
Nsg32
I-2762386499506207025
sg678
g563
sbasg570
(lp1232
g18
(g670
g20
Ntp1233
Rp1234
(dp1235
g674
(g14
tp1236
sg676
F1.0
sg677
Nsg32
I-4388037347453746305
sg678
g570
sbasg577
(lp1237
g18
(g670
g20
Ntp1238
Rp1239
(dp1240
g674
(g18
(g26
g20
Ntp1241
Rp1242
(dp1243
g30
g362
sg32
I7278569315191930721
sbtp1244
sg676
F0.14285714285714285
sg677
Nsg32
I-6244541159136298524
sg678
g577
sbag18
(g670
g20
Ntp1245
Rp1246
(dp1247
g674
(g947
tp1248
sg676
F0.14285714285714285
sg677
Nsg32
I-6244540005678847899
sg678
g18
(g26
g20
Ntp1249
Rp1250
(dp1251
g30
g579
sg32
I-2931417125068050479
sbsbag18
(g670
g20
Ntp1252
Rp1253
(dp1254
g674
(g18
(g26
g20
Ntp1255
Rp1256
(dp1257
g30
g390
sg32
I7278569315191930725
sbtp1258
sg676
F0.14285714285714285
sg677
Nsg32
I-6244536692157507424
sg678
g18
(g26
g20
Ntp1259
Rp1260
(dp1261
g30
g579
sg32
I-2931417125068050479
sbsbag18
(g670
g20
Ntp1262
Rp1263
(dp1264
g674
(g1105
tp1265
sg676
F0.14285714285714285
sg677
Nsg32
I-6244499215171235599
sg678
g18
(g26
g20
Ntp1266
Rp1267
(dp1268
g30
g579
sg32
I-2931417125068050479
sbsbag18
(g670
g20
Ntp1269
Rp1270
(dp1271
g674
(g18
(g26
g20
Ntp1272
Rp1273
(dp1274
g30
g502
sg32
I7278569315192930727
sbtp1275
sg676
F0.2857142857142857
sg677
Nsg32
I-7410019833963696974
sg678
g18
(g26
g20
Ntp1276
Rp1277
(dp1278
g30
g579
sg32
I-2931417125068050479
sbsbag18
(g670
g20
Ntp1279
Rp1280
(dp1281
g674
(g18
(g26
g20
Ntp1282
Rp1283
(dp1284
g30
g404
sg32
I7278569315191930727
sbtp1285
sg676
F0.14285714285714285
sg677
Nsg32
I-6244497706437740174
sg678
g18
(g26
g20
Ntp1286
Rp1287
(dp1288
g30
g579
sg32
I-2931417125068050479
sbsbasg584
(lp1289
g18
(g670
g20
Ntp1290
Rp1291
(dp1292
g674
(g725
tp1293
sg676
F1.0
sg677
Nsg32
I-6771794189476894519
sg678
g584
sbasg591
(lp1294
g18
(g670
g20
Ntp1295
Rp1296
(dp1297
g674
(g839
tp1298
sg676
F0.3333333333333333
sg677
Nsg32
I-6771794047746226369
sg678
g591
sbag18
(g670
g20
Ntp1299
Rp1300
(dp1301
g674
(g1207
tp1302
sg676
F0.6666666666666666
sg677
Nsg32
I8878656040710612728
sg678
g591
sbasg598
(lp1303
g18
(g670
g20
Ntp1304
Rp1305
(dp1306
g674
(g684
tp1307
sg676
F0.8
sg677
Nsg32
I7753261556098710571
sg678
g598
sbag18
(g670
g20
Ntp1308
Rp1309
(dp1310
g674
(g1242
tp1311
sg676
F0.2
sg677
Nsg32
I-5563795751125244347
sg678
g598
sbasg605
(lp1312
g18
(g670
g20
Ntp1313
Rp1314
(dp1315
g674
(g16
tp1316
sg676
F0.8333333333333334
sg677
Nsg32
I3426749278186978815
sg678
g605
sbag18
(g670
g20
Ntp1317
Rp1318
(dp1319
g674
(g14
tp1320
sg676
F0.16666666666666666
sg677
Nsg32
I474350305318977164
sg678
g605
sbasg612
(lp1321
g18
(g670
g20
Ntp1322
Rp1323
(dp1324
g674
(g15
tp1325
sg676
F1.0
sg677
Nsg32
I3228123195065783202
sg678
g612
sbasg619
(lp1326
g18
(g670
g20
Ntp1327
Rp1328
(dp1329
g674
(g725
tp1330
sg676
F1.0
sg677
Nsg32
I7753267048064132871
sg678
g619
sbasg626
(lp1331
g18
(g670
g20
Ntp1332
Rp1333
(dp1334
g674
(g14
tp1335
sg676
F1.0
sg677
Nsg32
I-3014316943728273635
sg678
g626
sbasg633
(lp1336
g18
(g670
g20
Ntp1337
Rp1338
(dp1339
g674
(g733
tp1340
sg676
F1.0
sg677
Nsg32
I-7011949125386282117
sg678
g633
sbasg640
(lp1341
g18
(g670
g20
Ntp1342
Rp1343
(dp1344
g674
(g1105
tp1345
sg676
F0.3333333333333333
sg677
Nsg32
I6538200054652910970
sg678
g640
sbag18
(g670
g20
Ntp1346
Rp1347
(dp1348
g674
(g18
(g26
g20
Ntp1349
Rp1350
(dp1351
g30
g551
sg32
I7278569315192930734
sbtp1352
sg676
F0.6666666666666666
sg677
Nsg32
I7743541045272158770
sg678
g640
sbasg647
(lp1353
g18
(g670
g20
Ntp1354
Rp1355
(dp1356
g674
(g772
tp1357
sg676
F0.16666666666666666
sg677
Nsg32
I-4277647289109429940
sg678
g647
sbag18
(g670
g20
Ntp1358
Rp1359
(dp1360
g674
(g954
tp1361
sg676
F0.8333333333333334
sg677
Nsg32
I-4277642976178276440
sg678
g647
sbasg654
(lp1362
g18
(g670
g20
Ntp1363
Rp1364
(dp1365
g674
(g839
tp1366
sg676
F0.2
sg677
Nsg32
I-8354769634778431484
sg678
g654
sbag18
(g670
g20
Ntp1367
Rp1368
(dp1369
g674
(g772
tp1370
sg676
F0.8
sg677
Nsg32
I-8354767613546207834
sg678
g654
sbasg661
(lp1371
g18
(g670
g20
Ntp1372
Rp1373
(dp1374
g674
(g772
tp1375
sg676
F1.0
sg677
Nsg32
I-8354766390800662059
sg678
g661
sbassS'_all_unary_are_lexical'
p1376
I00
sS'_empty_index'
p1377
(dp1378
sS'_categories'
p1379
g33
((lp1380
g28
ag38
ag45
ag549
ag59
ag66
ag73
ag486
ag87
ag94
ag416
ag108
ag115
ag122
ag129
ag136
ag143
ag150
ag157
ag164
ag171
ag178
ag185
ag192
ag199
ag206
ag213
ag220
ag227
ag234
ag241
ag248
ag255
ag458
ag269
ag325
ag283
ag290
ag297
ag304
ag311
ag318
ag276
ag332
ag339
ag80
ag353
ag360
ag367
ag374
ag381
ag388
ag395
ag402
ag409
ag101
ag423
ag430
ag437
ag444
ag451
ag262
ag465
ag472
ag479
ag346
ag493
ag500
ag507
ag514
ag521
ag528
ag535
ag542
ag52
ag556
ag563
ag570
ag577
ag584
ag591
ag598
ag605
ag612
ag619
ag626
ag633
ag640
ag647
ag654
ag661
atp1381
Rp1382
sS'_productions'
p1383
(lp1384
g817
ag821
ag826
ag996
ag738
ag742
ag1006
ag991
ag853
ag857
ag848
ag986
ag786
ag790
ag812
ag1160
ag862
ag866
ag871
ag1016
ag836
ag843
ag831
ag1011
ag777
ag781
ag769
ag971
ag876
ag880
ag888
ag981
ag795
ag799
ag807
ag976
ag1132
ag1136
ag959
ag963
ag1001
ag1314
ag1318
ag1323
ag1220
ag707
ag714
ag722
ag702
ag1355
ag1359
ag1333
ag697
ag1081
ag1088
ag1076
ag1195
ag1364
ag1368
ag1373
ag1190
ag747
ag751
ag756
ag1185
ag1151
ag1155
ag1146
ag1180
ag681
ag689
ag672
ag1175
ag1200
ag1204
ag1212
ag1170
ag893
ag900
ag905
ag1165
ag927
ag931
ag939
ag1046
ag944
ag951
ag1141
ag1051
ag1296
ag1300
ag1291
ag1036
ag1021
ag1028
ag730
ag1041
ag1305
ag1309
ag1328
ag1066
ag1098
ag1102
ag1110
ag1071
ag1343
ag1347
ag1338
ag1056
ag1120
ag1124
ag1115
ag1061
ag910
ag914
ag922
ag764
ag1225
ag1229
ag1234
ag1093
ag1239
ag1246
ag1253
ag1263
ag1270
ag1280
asS'_is_lexical'
p1385
I00
sS'_max_len'
p1386
I2
sS'_min_len'
p1387
I1
sS'_rhs_index'
p1388
(dp1389
g451
(lp1390
g1061
asg115
(lp1391
g971
asg1105
(lp1392
g1102
ag1343
ag1263
asg458
(lp1393
g1051
asg206
(lp1394
g981
asg38
(lp1395
g1175
asg430
(lp1396
g1071
asg129
(lp1397
g976
asg1256
(lp1398
g1253
asg479
(lp1399
g1180
asg1031
(lp1400
g1028
asg59
(lp1401
g702
asg954
(lp1402
g1359
ag951
asg220
(lp1403
g1165
asg934
(lp1404
g931
asg1273
(lp1405
g1270
asg1207
(lp1406
g1204
ag1300
asg692
(lp1407
g689
ag1115
asg1215
(lp1408
g1212
asg759
(lp1409
g756
asg917
(lp1410
g914
asg542
(lp1411
g1170
asg1350
(lp1412
g1347
asg710
(lp1413
g707
ag1146
asg234
(lp1414
g764
asg80
(lp1415
g1041
asg248
(lp1416
g1046
asg1127
(lp1417
g1124
asg486
(lp1418
g991
asg262
(lp1419
g1001
asg150
(lp1420
g996
asg947
(lp1421
g944
ag1246
asg966
(lp1422
g963
ag893
asg717
(lp1423
g807
ag714
asg591
(lp1424
g1036
asg563
(lp1425
g1093
asg733
(lp1426
g730
ag1338
ag1120
ag910
asg839
(lp1427
g871
ag836
ag1364
ag1151
ag1296
asg725
(lp1428
g857
ag790
ag866
ag843
ag722
ag1076
ag905
ag1291
ag1328
asg772
(lp1429
g769
ag1355
ag1368
ag1373
ag1155
ag681
ag1305
ag1110
asg1084
(lp1430
g1081
ag1229
asg883
(lp1431
g880
ag1098
asg802
(lp1432
g799
ag939
asg605
(lp1433
g1220
asg16
(lp1434
g853
ag812
ag777
ag888
ag1132
ag959
ag1314
ag1088
ag927
ag1225
asg1242
(lp1435
g1309
ag1239
asg15
(lp1436
g817
ag738
ag1006
ag862
ag831
ag781
ag876
ag1323
ag1141
asg3
(lp1437
g742
ag848
ag1136
ag747
ag672
ag1200
ag900
asg598
(lp1438
g1066
asg14
(lp1439
g821
ag826
ag786
ag795
ag1318
ag1333
ag751
ag922
ag1234
asg185
(lp1440
g986
asg1283
(lp1441
g1280
asg101
(lp1442
g1195
asg122
(lp1443
g1160
asg87
(lp1444
g1185
asg640
(lp1445
g1056
asg647
(lp1446
g697
asg192
(lp1447
g1016
asg1024
(lp1448
g1021
asg654
(lp1449
g1190
asg171
(lp1450
g1011
assS'_leftcorner_words'
p1451
(dp1452
g28
g33
((lp1453
g3
atp1454
Rp1455
sg38
g33
((lp1456
g16
ag15
ag3
atp1457
Rp1458
sg45
g33
((lp1459
g16
ag15
ag3
ag14
atp1460
Rp1461
sg52
g33
((lp1462
g3
ag14
atp1463
Rp1464
sg59
g33
((lp1465
g16
ag15
ag3
ag14
atp1466
Rp1467
sg66
g33
((lp1468
g15
ag14
atp1469
Rp1470
sg325
g33
((lp1471
g16
ag15
atp1472
Rp1473
sg80
g33
((lp1474
g16
ag15
ag3
ag14
atp1475
Rp1476
sg87
g33
((lp1477
g3
ag14
atp1478
Rp1479
sg94
g33
((lp1480
g16
ag15
ag3
atp1481
Rp1482
sg101
g33
((lp1483
g16
ag15
atp1484
Rp1485
sg108
g33
((lp1486
g16
ag3
atp1487
Rp1488
sg115
g33
((lp1489
g16
ag15
atp1490
Rp1491
sg122
g33
((lp1492
g15
ag14
atp1493
Rp1494
sg129
g33
((lp1495
g15
ag14
atp1496
Rp1497
sg136
g33
((lp1498
g15
ag3
ag14
atp1499
Rp1500
sg143
g33
((lp1501
g16
atp1502
Rp1503
sg150
g33
((lp1504
g15
ag14
atp1505
Rp1506
sg157
g33
((lp1507
g14
atp1508
Rp1509
sg164
g33
((lp1510
g15
atp1511
Rp1512
sg171
g33
((lp1513
g15
ag3
ag14
atp1514
Rp1515
sg178
g33
((lp1516
g3
atp1517
Rp1518
sg185
g33
((lp1519
g16
ag15
ag14
atp1520
Rp1521
sg192
g33
((lp1522
g15
ag14
atp1523
Rp1524
sg199
g33
((lp1525
g15
ag3
atp1526
Rp1527
sg206
g33
((lp1528
g15
ag3
ag14
atp1529
Rp1530
sg213
g33
((lp1531
g16
atp1532
Rp1533
sg220
g33
((lp1534
g15
ag3
ag14
atp1535
Rp1536
sg227
g33
((lp1537
g15
ag14
atp1538
Rp1539
sg234
g33
((lp1540
g16
ag15
ag14
atp1541
Rp1542
sg241
g33
((lp1543
g14
atp1544
Rp1545
sg248
g33
((lp1546
g16
ag15
ag3
ag14
atp1547
Rp1548
sg255
g33
((lp1549
g15
ag14
atp1550
Rp1551
sg262
g33
((lp1552
g16
ag3
atp1553
Rp1554
sg269
g33
((lp1555
g16
ag15
ag14
atp1556
Rp1557
sg283
g33
((lp1558
g15
ag14
atp1559
Rp1560
sg290
g33
((lp1561
g15
ag3
ag14
atp1562
Rp1563
sg297
g33
((lp1564
g16
ag15
ag14
atp1565
Rp1566
sg304
g33
((lp1567
g15
ag3
atp1568
Rp1569
sg311
g33
((lp1570
g15
ag14
atp1571
Rp1572
sg318
g33
((lp1573
g16
ag3
atp1574
Rp1575
sg276
g33
((lp1576
g15
atp1577
Rp1578
sg332
g33
((lp1579
g15
ag3
ag14
atp1580
Rp1581
sg339
g33
((lp1582
g15
ag14
atp1583
Rp1584
sg346
g33
((lp1585
g15
ag14
atp1586
Rp1587
sg353
g33
((lp1588
g16
ag15
ag3
atp1589
Rp1590
sg360
g33
((lp1591
g16
ag15
ag3
ag14
atp1592
Rp1593
sg367
g33
((lp1594
g16
ag15
ag3
ag14
atp1595
Rp1596
sg374
g33
((lp1597
g16
ag15
ag3
ag14
atp1598
Rp1599
sg381
g33
((lp1600
g16
ag15
ag3
ag14
atp1601
Rp1602
sg388
g33
((lp1603
g16
ag15
ag3
ag14
atp1604
Rp1605
sg395
g33
((lp1606
g16
ag15
ag3
ag14
atp1607
Rp1608
sg402
g33
((lp1609
g16
ag15
ag3
ag14
atp1610
Rp1611
sg409
g33
((lp1612
g15
ag14
atp1613
Rp1614
sg416
g33
((lp1615
g16
ag15
ag14
atp1616
Rp1617
sg423
g33
((lp1618
g16
ag15
atp1619
Rp1620
sg430
g33
((lp1621
g16
ag15
ag3
ag14
atp1622
Rp1623
sg437
g33
((lp1624
g16
ag3
atp1625
Rp1626
sg444
g33
((lp1627
g16
ag15
ag3
atp1628
Rp1629
sg451
g33
((lp1630
g16
ag15
ag3
ag14
atp1631
Rp1632
sg458
g33
((lp1633
g16
ag15
ag3
ag14
atp1634
Rp1635
sg465
g33
((lp1636
g15
atp1637
Rp1638
sg472
g33
((lp1639
g16
ag14
atp1640
Rp1641
sg479
g33
((lp1642
g16
ag15
ag3
atp1643
Rp1644
sg486
g33
((lp1645
g15
ag3
atp1646
Rp1647
sg493
g33
((lp1648
g15
ag3
ag14
atp1649
Rp1650
sg500
g33
((lp1651
g16
ag15
ag3
atp1652
Rp1653
sg507
g33
((lp1654
g16
ag15
ag3
atp1655
Rp1656
sg514
g33
((lp1657
g16
ag15
ag3
atp1658
Rp1659
sg521
g33
((lp1660
g3
ag14
atp1661
Rp1662
sg528
g33
((lp1663
g16
ag15
ag3
atp1664
Rp1665
sg535
g33
((lp1666
g16
ag15
atp1667
Rp1668
sg542
g33
((lp1669
g16
ag15
ag3
atp1670
Rp1671
sg549
g33
((lp1672
g16
ag15
ag3
ag14
atp1673
Rp1674
sg556
g33
((lp1675
g16
ag14
atp1676
Rp1677
sg563
g33
((lp1678
g16
ag15
atp1679
Rp1680
sg570
g33
((lp1681
g14
atp1682
Rp1683
sg577
g33
((lp1684
g16
ag15
ag3
ag14
atp1685
Rp1686
sg584
g33
((lp1687
g15
ag14
atp1688
Rp1689
sg591
g33
((lp1690
g16
ag15
ag3
atp1691
Rp1692
sg73
g33
((lp1693
g16
ag15
ag14
atp1694
Rp1695
sg598
g33
((lp1696
g16
ag15
ag3
ag14
atp1697
Rp1698
sg605
g33
((lp1699
g16
ag14
atp1700
Rp1701
sg612
g33
((lp1702
g15
atp1703
Rp1704
sg619
g33
((lp1705
g15
ag14
atp1706
Rp1707
sg626
g33
((lp1708
g14
atp1709
Rp1710
sg633
g33
((lp1711
g16
ag15
ag14
atp1712
Rp1713
sg640
g33
((lp1714
g16
ag15
ag3
ag14
atp1715
Rp1716
sg647
g33
((lp1717
g16
ag15
ag3
ag14
atp1718
Rp1719
sg654
g33
((lp1720
g16
ag15
ag3
atp1721
Rp1722
sg661
g33
((lp1723
g16
ag3
atp1724
Rp1725
ssS'_lexical_index'
p1726
(dp1727
g16
g33
((lp1728
g927
ag812
ag853
ag959
ag1314
ag1132
ag888
ag777
ag1088
ag1225
atp1729
Rp1730
sg15
g33
((lp1731
g817
ag1006
ag831
ag1323
ag781
ag876
ag1141
ag862
ag738
atp1732
Rp1733
sg3
g33
((lp1734
g1136
ag900
ag672
ag742
ag747
ag1200
ag848
atp1735
Rp1736
sg14
g33
((lp1737
g1234
ag795
ag751
ag821
ag922
ag826
ag786
ag1318
ag1333
atp1738
Rp1739
ssS'_start'
p1740
g18
(g26
g20
Ntp1741
Rp1742
(dp1743
g30
g579
sg32
I-2931417125068050479
sbsS'_immediate_leftcorner_categories'
p1744
(dp1745
g28
g33
((lp1746
g28
atp1747
Rp1748
sg38
g33
((lp1749
g692
ag684
ag38
atp1750
Rp1751
sg45
g33
((lp1752
g647
ag45
atp1753
Rp1754
sg52
g33
((lp1755
g1215
ag52
atp1756
Rp1757
sg59
g33
((lp1758
g717
ag59
ag710
atp1759
Rp1760
sg66
g33
((lp1761
g725
ag66
atp1762
Rp1763
sg73
g33
((lp1764
g733
ag73
atp1765
Rp1766
sg80
g33
((lp1767
g1024
ag1031
ag80
atp1768
Rp1769
sg87
g33
((lp1770
g87
atp1771
Rp1772
sg94
g33
((lp1773
g94
ag759
atp1774
Rp1775
sg101
g33
((lp1776
g101
ag1084
atp1777
Rp1778
sg108
g33
((lp1779
g108
ag772
atp1780
Rp1781
sg115
g33
((lp1782
g115
atp1783
Rp1784
sg122
g33
((lp1785
g725
ag122
atp1786
Rp1787
sg129
g33
((lp1788
g129
ag802
atp1789
Rp1790
sg136
g33
((lp1791
g717
ag136
atp1792
Rp1793
sg143
g33
((lp1794
g143
atp1795
Rp1796
sg150
g33
((lp1797
g150
atp1798
Rp1799
sg157
g33
((lp1800
g157
atp1801
Rp1802
sg164
g33
((lp1803
g164
atp1804
Rp1805
sg171
g33
((lp1806
g839
ag725
ag171
atp1807
Rp1808
sg178
g33
((lp1809
g178
atp1810
Rp1811
sg185
g33
((lp1812
g725
ag185
atp1813
Rp1814
sg192
g33
((lp1815
g725
ag192
atp1816
Rp1817
sg199
g33
((lp1818
g839
ag199
atp1819
Rp1820
sg206
g33
((lp1821
g206
ag883
atp1822
Rp1823
sg213
g33
((lp1824
g213
atp1825
Rp1826
sg220
g33
((lp1827
g896
ag220
atp1828
Rp1829
sg227
g33
((lp1830
g725
ag227
atp1831
Rp1832
sg234
g33
((lp1833
g234
ag733
ag917
atp1834
Rp1835
sg241
g33
((lp1836
g241
atp1837
Rp1838
sg248
g33
((lp1839
g248
ag934
atp1840
Rp1841
sg255
g33
((lp1842
g255
ag802
atp1843
Rp1844
sg262
g33
((lp1845
g262
atp1846
Rp1847
sg269
g33
((lp1848
g269
ag966
atp1849
Rp1850
sg276
g33
((lp1851
g276
atp1852
Rp1853
sg283
g33
((lp1854
g129
ag283
atp1855
Rp1856
sg290
g33
((lp1857
g206
ag290
atp1858
Rp1859
sg297
g33
((lp1860
g297
ag185
atp1861
Rp1862
sg304
g33
((lp1863
g304
ag486
atp1864
Rp1865
sg311
g33
((lp1866
g150
ag311
atp1867
Rp1868
sg318
g33
((lp1869
g262
ag318
atp1870
Rp1871
sg325
g33
((lp1872
g115
ag325
atp1873
Rp1874
sg332
g33
((lp1875
g171
ag332
atp1876
Rp1877
sg339
g33
((lp1878
g192
ag339
atp1879
Rp1880
sg346
g33
((lp1881
g122
ag346
atp1882
Rp1883
sg353
g33
((lp1884
g353
ag591
atp1885
Rp1886
sg360
g33
((lp1887
g360
ag80
atp1888
Rp1889
sg367
g33
((lp1890
g248
ag367
atp1891
Rp1892
sg374
g33
((lp1893
g458
ag374
atp1894
Rp1895
sg381
g33
((lp1896
g640
ag381
atp1897
Rp1898
sg388
g33
((lp1899
g451
ag388
atp1900
Rp1901
sg395
g33
((lp1902
g598
ag395
atp1903
Rp1904
sg402
g33
((lp1905
g430
ag402
atp1906
Rp1907
sg409
g33
((lp1908
g409
ag725
atp1909
Rp1910
sg416
g33
((lp1911
g234
ag416
atp1912
Rp1913
sg423
g33
((lp1914
g563
ag423
atp1915
Rp1916
sg430
g33
((lp1917
g430
ag1105
ag883
atp1918
Rp1919
sg437
g33
((lp1920
g772
ag437
atp1921
Rp1922
sg444
g33
((lp1923
g444
ag692
atp1924
Rp1925
sg451
g33
((lp1926
g733
ag451
ag1127
atp1927
Rp1928
sg458
g33
((lp1929
g458
ag947
ag954
atp1930
Rp1931
sg465
g33
((lp1932
g465
atp1933
Rp1934
sg472
g33
((lp1935
g472
ag710
atp1936
Rp1937
sg479
g33
((lp1938
g839
ag772
ag479
atp1939
Rp1940
sg486
g33
((lp1941
g486
atp1942
Rp1943
sg493
g33
((lp1944
g220
ag493
atp1945
Rp1946
sg500
g33
((lp1947
g542
ag500
atp1948
Rp1949
sg507
g33
((lp1950
g507
ag38
atp1951
Rp1952
sg514
g33
((lp1953
g514
ag479
atp1954
Rp1955
sg521
g33
((lp1956
g87
ag521
atp1957
Rp1958
sg528
g33
((lp1959
g654
ag528
atp1960
Rp1961
sg535
g33
((lp1962
g101
ag535
atp1963
Rp1964
sg542
g33
((lp1965
g1207
ag542
atp1966
Rp1967
sg549
g33
((lp1968
g59
ag549
atp1969
Rp1970
sg556
g33
((lp1971
g605
ag556
atp1972
Rp1973
sg563
g33
((lp1974
g563
ag1084
atp1975
Rp1976
sg570
g33
((lp1977
g570
atp1978
Rp1979
sg577
g33
((lp1980
g1242
ag947
ag1256
ag1105
ag1273
ag1283
ag577
atp1981
Rp1982
sg584
g33
((lp1983
g725
ag584
atp1984
Rp1985
sg591
g33
((lp1986
g1207
ag839
ag591
atp1987
Rp1988
sg598
g33
((lp1989
g1242
ag684
ag598
atp1990
Rp1991
sg605
g33
((lp1992
g605
atp1993
Rp1994
sg612
g33
((lp1995
g612
atp1996
Rp1997
sg619
g33
((lp1998
g725
ag619
atp1999
Rp2000
sg626
g33
((lp2001
g626
atp2002
Rp2003
sg633
g33
((lp2004
g733
ag633
atp2005
Rp2006
sg640
g33
((lp2007
g640
ag1350
ag1105
atp2008
Rp2009
sg647
g33
((lp2010
g772
ag647
ag954
atp2011
Rp2012
sg654
g33
((lp2013
g654
ag772
ag839
atp2014
Rp2015
sg661
g33
((lp2016
g661
ag772
atp2017
Rp2018
ssS'_leftcorners'
p2019
(dp2020
g28
g33
((lp2021
g28
atp2022
Rp2023
sg38
g33
((lp2024
g262
ag479
ag839
ag692
ag684
ag38
ag486
atp2025
Rp2026
sg542
g33
((lp2027
g262
ag1207
ag692
ag542
ag38
ag479
ag839
ag684
ag486
atp2028
Rp2029
sg549
g33
((lp2030
g605
ag150
ag206
ag549
ag710
ag717
ag839
ag725
ag171
ag59
ag883
ag486
atp2031
Rp2032
sg59
g33
((lp2033
g605
ag150
ag206
ag710
ag717
ag839
ag725
ag171
ag59
ag883
ag486
atp2034
Rp2035
sg66
g33
((lp2036
g150
ag725
ag66
atp2037
Rp2038
sg325
g33
((lp2039
g115
ag325
atp2040
Rp2041
sg80
g33
((lp2042
g458
ag262
ag150
ag38
ag129
ag896
ag591
ag479
ag839
ag725
ag684
ag802
ag80
ag1024
ag947
ag1031
ag220
ag934
ag1207
ag692
ag122
ag192
ag248
ag486
ag954
atp2043
Rp2044
sg486
g33
((lp2045
g486
atp2046
Rp2047
sg87
g33
((lp2048
g87
atp2049
Rp2050
sg94
g33
((lp2051
g262
ag94
ag839
ag654
ag772
ag759
ag486
atp2052
Rp2053
sg416
g33
((lp2054
g115
ag185
ag150
ag416
ag917
ag234
ag733
ag725
ag1084
ag101
atp2055
Rp2056
sg108
g33
((lp2057
g108
ag772
ag262
atp2058
Rp2059
sg115
g33
((lp2060
g115
atp2061
Rp2062
sg122
g33
((lp2063
g150
ag725
ag122
atp2064
Rp2065
sg129
g33
((lp2066
g129
ag192
ag150
ag725
ag802
atp2067
Rp2068
sg136
g33
((lp2069
g717
ag136
ag839
ag150
ag206
ag725
ag171
ag883
ag486
atp2070
Rp2071
sg143
g33
((lp2072
g143
atp2073
Rp2074
sg150
g33
((lp2075
g150
atp2076
Rp2077
sg157
g33
((lp2078
g157
atp2079
Rp2080
sg164
g33
((lp2081
g164
atp2082
Rp2083
sg171
g33
((lp2084
g150
ag839
ag725
ag171
ag486
atp2085
Rp2086
sg178
g33
((lp2087
g178
atp2088
Rp2089
sg185
g33
((lp2090
g150
ag725
ag185
atp2091
Rp2092
sg192
g33
((lp2093
g150
ag725
ag192
atp2094
Rp2095
sg199
g33
((lp2096
g839
ag486
ag199
atp2097
Rp2098
sg206
g33
((lp2099
g150
ag206
ag839
ag725
ag171
ag883
ag486
atp2100
Rp2101
sg213
g33
((lp2102
g213
atp2103
Rp2104
sg220
g33
((lp2105
g220
ag150
ag129
ag896
ag192
ag725
ag802
atp2106
Rp2107
sg227
g33
((lp2108
g150
ag725
ag227
atp2109
Rp2110
sg234
g33
((lp2111
g234
ag150
ag115
ag185
ag733
ag1084
ag725
ag917
ag101
atp2112
Rp2113
sg241
g33
((lp2114
g241
atp2115
Rp2116
sg248
g33
((lp2117
g220
ag934
ag150
ag129
ag896
ag192
ag248
ag725
ag802
atp2118
Rp2119
sg255
g33
((lp2120
g192
ag150
ag725
ag255
ag802
atp2121
Rp2122
sg458
g33
((lp2123
g458
ag947
ag220
ag934
ag150
ag122
ag129
ag896
ag192
ag248
ag725
ag802
ag954
atp2124
Rp2125
sg269
g33
((lp2126
g269
ag150
ag129
ag966
ag192
ag725
ag802
atp2127
Rp2128
sg283
g33
((lp2129
g129
ag283
ag192
ag150
ag725
ag802
atp2130
Rp2131
sg290
g33
((lp2132
g150
ag206
ag290
ag839
ag725
ag171
ag883
ag486
atp2133
Rp2134
sg297
g33
((lp2135
g297
ag150
ag725
ag185
atp2136
Rp2137
sg304
g33
((lp2138
g304
ag486
atp2139
Rp2140
sg311
g33
((lp2141
g150
ag311
atp2142
Rp2143
sg318
g33
((lp2144
g262
ag318
atp2145
Rp2146
sg276
g33
((lp2147
g276
atp2148
Rp2149
sg332
g33
((lp2150
g150
ag839
ag725
ag171
ag332
ag486
atp2151
Rp2152
sg339
g33
((lp2153
g150
ag725
ag192
ag339
atp2154
Rp2155
sg346
g33
((lp2156
g150
ag725
ag122
ag346
atp2157
Rp2158
sg353
g33
((lp2159
g353
ag262
ag1207
ag692
ag38
ag591
ag479
ag839
ag684
ag486
atp2160
Rp2161
sg360
g33
((lp2162
g458
ag262
ag150
ag38
ag129
ag896
ag591
ag479
ag839
ag725
ag684
ag802
ag80
ag1024
ag360
ag947
ag1031
ag220
ag934
ag1207
ag692
ag122
ag192
ag248
ag486
ag954
atp2163
Rp2164
sg367
g33
((lp2165
g367
ag220
ag934
ag150
ag129
ag896
ag192
ag248
ag725
ag802
atp2166
Rp2167
sg374
g33
((lp2168
g458
ag947
ag374
ag220
ag934
ag150
ag122
ag129
ag896
ag192
ag248
ag725
ag802
ag954
atp2169
Rp2170
sg381
g33
((lp2171
g262
ag206
ag38
ag129
ag479
ag59
ag954
ag220
ag934
ag1207
ag692
ag1350
ag710
ag248
ag486
ag458
ag150
ag896
ag717
ag591
ag381
ag725
ag684
ag883
ag802
ag80
ag1024
ag1242
ag947
ag1031
ag598
ag605
ag1105
ag122
ag839
ag640
ag192
ag171
atp2172
Rp2173
sg388
g33
((lp2174
g185
ag458
ag206
ag38
ag129
ag479
ag59
ag220
ag934
ag1207
ag692
ag605
ag1350
ag710
ag80
ag248
ag486
ag262
ag150
ag896
ag717
ag591
ag733
ag598
ag725
ag684
ag883
ag802
ag954
ag1024
ag1242
ag947
ag1031
ag1127
ag388
ag1105
ag171
ag122
ag839
ag640
ag192
ag451
atp2175
Rp2176
sg395
g33
((lp2177
g458
ag262
ag150
ag38
ag129
ag896
ag591
ag479
ag839
ag725
ag684
ag802
ag80
ag1024
ag1242
ag947
ag1031
ag598
ag934
ag395
ag220
ag1207
ag692
ag122
ag192
ag248
ag486
ag954
atp2178
Rp2179
sg402
g33
((lp2180
g458
ag262
ag150
ag38
ag122
ag129
ag896
ag591
ag479
ag839
ag725
ag684
ag883
ag802
ag80
ag1024
ag1242
ag947
ag1031
ag598
ag934
ag1105
ag402
ag1207
ag692
ag171
ag430
ag192
ag220
ag248
ag486
ag954
atp2181
Rp2182
sg409
g33
((lp2183
g150
ag409
ag725
atp2184
Rp2185
sg101
g33
((lp2186
g101
ag1084
ag115
atp2187
Rp2188
sg423
g33
((lp2189
g563
ag115
ag423
ag1084
atp2190
Rp2191
sg430
g33
((lp2192
g458
ag262
ag150
ag38
ag122
ag129
ag896
ag591
ag479
ag839
ag725
ag684
ag883
ag802
ag80
ag1024
ag1242
ag947
ag1031
ag598
ag934
ag1105
ag220
ag1207
ag692
ag171
ag430
ag192
ag248
ag486
ag954
atp2193
Rp2194
sg437
g33
((lp2195
g262
ag772
ag437
atp2196
Rp2197
sg444
g33
((lp2198
g262
ag772
ag839
ag444
ag692
ag479
ag486
atp2199
Rp2200
sg451
g33
((lp2201
g458
ag206
ag38
ag129
ag479
ag59
ag220
ag934
ag1207
ag692
ag1350
ag710
ag80
ag248
ag486
ag262
ag150
ag896
ag717
ag591
ag733
ag598
ag725
ag684
ag883
ag802
ag954
ag1024
ag1242
ag947
ag1031
ag1127
ag605
ag185
ag171
ag122
ag839
ag640
ag192
ag1105
ag451
atp2202
Rp2203
sg262
g33
((lp2204
g262
atp2205
Rp2206
sg465
g33
((lp2207
g465
atp2208
Rp2209
sg472
g33
((lp2210
g472
ag605
ag710
atp2211
Rp2212
sg479
g33
((lp2213
g262
ag479
ag839
ag772
ag486
atp2214
Rp2215
sg493
g33
((lp2216
g220
ag493
ag150
ag129
ag896
ag192
ag725
ag802
atp2217
Rp2218
sg500
g33
((lp2219
g262
ag500
ag1207
ag692
ag542
ag38
ag479
ag839
ag684
ag486
atp2220
Rp2221
sg507
g33
((lp2222
g262
ag507
ag692
ag38
ag479
ag839
ag684
ag486
atp2223
Rp2224
sg514
g33
((lp2225
g262
ag479
ag514
ag772
ag839
ag486
atp2226
Rp2227
sg521
g33
((lp2228
g87
ag521
atp2229
Rp2230
sg528
g33
((lp2231
g262
ag772
ag839
ag654
ag528
ag486
atp2232
Rp2233
sg535
g33
((lp2234
g1084
ag101
ag535
ag115
atp2235
Rp2236
sg45
g33
((lp2237
g262
ag647
ag122
ag150
ag725
ag772
ag45
ag954
atp2238
Rp2239
sg52
g33
((lp2240
g87
ag1215
ag52
atp2241
Rp2242
sg556
g33
((lp2243
g605
ag556
atp2244
Rp2245
sg563
g33
((lp2246
g563
ag115
ag1084
atp2247
Rp2248
sg570
g33
((lp2249
g570
atp2250
Rp2251
sg577
g33
((lp2252
g206
ag38
ag59
ag220
ag248
ag486
ag458
ag896
ag717
ag733
ag839
ag725
ag684
ag883
ag802
ag80
ag1024
ag1242
ag947
ag1031
ag1127
ag1256
ag1105
ag1283
ag122
ag171
ag262
ag430
ag129
ag479
ag954
ag934
ag1273
ag1207
ag692
ag542
ag1350
ag710
ag150
ag577
ag591
ag451
ag598
ag605
ag185
ag640
ag192
atp2253
Rp2254
sg584
g33
((lp2255
g150
ag725
ag584
atp2256
Rp2257
sg591
g33
((lp2258
g262
ag1207
ag692
ag38
ag591
ag479
ag839
ag684
ag486
atp2259
Rp2260
sg73
g33
((lp2261
g150
ag185
ag733
ag725
ag73
atp2262
Rp2263
sg598
g33
((lp2264
g458
ag262
ag150
ag38
ag129
ag896
ag591
ag479
ag839
ag725
ag684
ag802
ag80
ag1024
ag1242
ag947
ag1031
ag598
ag934
ag220
ag1207
ag692
ag122
ag192
ag248
ag486
ag954
atp2265
Rp2266
sg605
g33
((lp2267
g605
atp2268
Rp2269
sg612
g33
((lp2270
g612
atp2271
Rp2272
sg619
g33
((lp2273
g150
ag725
ag619
atp2274
Rp2275
sg626
g33
((lp2276
g626
atp2277
Rp2278
sg633
g33
((lp2279
g633
ag185
ag733
ag725
ag150
atp2280
Rp2281
sg640
g33
((lp2282
g458
ag262
ag150
ag206
ag38
ag129
ag896
ag717
ag591
ag479
ag839
ag725
ag684
ag59
ag883
ag802
ag80
ag1024
ag1242
ag947
ag1031
ag598
ag934
ag1105
ag220
ag1207
ag692
ag171
ag605
ag122
ag1350
ag710
ag640
ag192
ag248
ag486
ag954
atp2283
Rp2284
sg647
g33
((lp2285
g262
ag647
ag150
ag725
ag772
ag122
ag954
atp2286
Rp2287
sg654
g33
((lp2288
g262
ag839
ag654
ag772
ag486
atp2289
Rp2290
sg661
g33
((lp2291
g262
ag661
ag772
atp2292
Rp2293
ssS'_leftcorner_parents'
p2294
(dp2295
g28
g33
((lp2296
g28
atp2297
Rp2298
sg38
g33
((lp2299
g353
ag360
ag381
ag388
ag395
ag402
ag507
ag500
ag542
ag38
ag430
ag577
ag640
ag591
ag598
ag451
ag80
atp2300
Rp2301
sg45
g33
((lp2302
g45
atp2303
Rp2304
sg52
g33
((lp2305
g52
atp2306
Rp2307
sg59
g33
((lp2308
g381
ag388
ag549
ag577
ag640
ag451
ag59
atp2309
Rp2310
sg66
g33
((lp2311
g66
atp2312
Rp2313
sg276
g33
((lp2314
g276
atp2315
Rp2316
sg80
g33
((lp2317
g360
ag381
ag388
ag395
ag402
ag430
ag577
ag640
ag598
ag451
ag80
atp2318
Rp2319
sg87
g33
((lp2320
g87
ag521
ag52
atp2321
Rp2322
sg94
g33
((lp2323
g94
atp2324
Rp2325
sg101
g33
((lp2326
g234
ag416
ag535
ag101
atp2327
Rp2328
sg108
g33
((lp2329
g108
atp2330
Rp2331
sg115
g33
((lp2332
g115
ag416
ag423
ag535
ag234
ag563
ag325
ag101
atp2333
Rp2334
sg122
g33
((lp2335
g451
ag458
ag374
ag381
ag388
ag395
ag360
ag402
ag122
ag430
ag577
ag640
ag647
ag45
ag80
ag598
ag346
atp2336
Rp2337
sg129
g33
((lp2338
g458
ag269
ag374
ag220
ag388
ag395
ag360
ag402
ag367
ag430
ag129
ag577
ag283
ag493
ag248
ag381
ag451
ag598
ag640
ag80
atp2339
Rp2340
sg136
g33
((lp2341
g136
atp2342
Rp2343
sg143
g33
((lp2344
g143
atp2345
Rp2346
sg150
g33
((lp2347
g206
ag430
ag129
ag136
ag59
ag66
ag346
ag220
ag493
ag227
ag45
ag549
ag234
ag248
ag255
ag458
ag269
ag150
ag577
ag283
ag290
ag584
ag297
ag598
ag311
ag73
ag332
ag339
ag80
ag451
ag360
ag367
ag374
ag381
ag388
ag185
ag402
ag409
ag416
ag619
ag122
ag633
ag640
ag647
ag192
ag395
ag171
atp2348
Rp2349
sg157
g33
((lp2350
g157
atp2351
Rp2352
sg164
g33
((lp2353
g164
atp2354
Rp2355
sg171
g33
((lp2356
g451
ag136
ag388
ag402
ag206
ag430
ag549
ag577
ag640
ag290
ag381
ag171
ag59
ag332
atp2357
Rp2358
sg178
g33
((lp2359
g178
atp2360
Rp2361
sg185
g33
((lp2362
g388
ag185
ag633
ag416
ag234
ag577
ag297
ag451
ag73
atp2363
Rp2364
sg192
g33
((lp2365
g129
ag220
ag493
ag248
ag255
ag458
ag269
ag577
ag283
ag598
ag339
ag80
ag360
ag367
ag374
ag381
ag388
ag395
ag402
ag430
ag640
ag192
ag451
atp2366
Rp2367
sg199
g33
((lp2368
g199
atp2369
Rp2370
sg206
g33
((lp2371
g136
ag388
ag206
ag549
ag577
ag640
ag290
ag381
ag451
ag59
atp2372
Rp2373
sg213
g33
((lp2374
g213
atp2375
Rp2376
sg220
g33
((lp2377
g458
ag367
ag374
ag220
ag388
ag395
ag360
ag402
ag430
ag493
ag577
ag640
ag248
ag381
ag451
ag598
ag80
atp2378
Rp2379
sg227
g33
((lp2380
g227
atp2381
Rp2382
sg234
g33
((lp2383
g234
ag416
atp2384
Rp2385
sg241
g33
((lp2386
g241
atp2387
Rp2388
sg248
g33
((lp2389
g458
ag367
ag374
ag381
ag388
ag395
ag360
ag402
ag430
ag577
ag640
ag248
ag598
ag451
ag80
atp2390
Rp2391
sg255
g33
((lp2392
g255
atp2393
Rp2394
sg458
g33
((lp2395
g458
ag374
ag381
ag388
ag395
ag360
ag402
ag430
ag577
ag640
ag598
ag451
ag80
atp2396
Rp2397
sg269
g33
((lp2398
g269
atp2399
Rp2400
sg896
g33
((lp2401
g458
ag269
ag374
ag220
ag388
ag395
ag360
ag402
ag367
ag430
ag493
ag577
ag283
ag248
ag381
ag451
ag598
ag640
ag80
atp2402
Rp2403
sg717
g33
((lp2404
g381
ag136
ag549
ag577
ag640
ag290
ag451
ag59
ag388
atp2405
Rp2406
sg733
g33
((lp2407
g388
ag633
ag416
ag234
ag577
ag297
ag451
ag73
atp2408
Rp2409
sg839
g33
((lp2410
g206
ag38
ag136
ag479
ag59
ag500
ag507
ag514
ag528
ag542
ag549
ag598
ag577
ag290
ag591
ag304
ag332
ag80
ag353
ag360
ag171
ag381
ag388
ag395
ag402
ag430
ag640
ag94
ag199
ag444
ag654
ag451
atp2411
Rp2412
sg725
g33
((lp2413
g206
ag430
ag129
ag136
ag59
ag66
ag346
ag220
ag493
ag227
ag45
ag549
ag234
ag248
ag255
ag458
ag269
ag577
ag283
ag290
ag584
ag297
ag598
ag311
ag73
ag332
ag339
ag80
ag451
ag360
ag367
ag374
ag381
ag388
ag185
ag402
ag409
ag416
ag619
ag122
ag633
ag640
ag647
ag192
ag395
ag171
atp2414
Rp2415
sg684
g33
((lp2416
g108
ag38
ag45
ag479
ag500
ag507
ag514
ag528
ag542
ag647
ag577
ag591
ag598
ag318
ag80
ag353
ag360
ag381
ag388
ag395
ag402
ag430
ag437
ag640
ag94
ag444
ag654
ag661
ag451
atp2417
Rp2418
sg325
g33
((lp2419
g416
ag423
ag535
ag234
ag563
ag325
ag101
atp2420
Rp2421
sg883
g33
((lp2422
g136
ag388
ag402
ag206
ag430
ag549
ag577
ag640
ag290
ag381
ag451
ag59
ag332
atp2423
Rp2424
sg802
g33
((lp2425
g129
ag220
ag493
ag248
ag255
ag458
ag269
ag577
ag283
ag598
ag339
ag80
ag360
ag367
ag374
ag381
ag388
ag395
ag402
ag430
ag640
ag451
atp2426
Rp2427
sg954
g33
((lp2428
g451
ag458
ag374
ag381
ag388
ag395
ag360
ag402
ag430
ag45
ag577
ag640
ag647
ag598
ag80
ag346
atp2429
Rp2430
sg1024
g33
((lp2431
g353
ag360
ag381
ag388
ag395
ag402
ag430
ag577
ag640
ag598
ag451
ag80
atp2432
Rp2433
sg360
g33
((lp2434
g360
ag381
ag388
ag395
ag402
ag430
ag577
ag640
ag598
ag451
atp2435
Rp2436
sg947
g33
((lp2437
g458
ag367
ag374
ag381
ag388
ag395
ag360
ag402
ag430
ag577
ag640
ag598
ag451
ag80
atp2438
Rp2439
sg1031
g33
((lp2440
g360
ag374
ag381
ag388
ag395
ag402
ag430
ag577
ag640
ag598
ag451
ag80
atp2441
Rp2442
sg381
g33
((lp2443
g577
ag451
ag381
ag388
atp2444
Rp2445
sg388
g33
((lp2446
g577
ag388
atp2447
Rp2448
sg1105
g33
((lp2449
g381
ag388
ag395
ag402
ag430
ag577
ag640
ag451
atp2450
Rp2451
sg402
g33
((lp2452
g577
ag402
atp2453
Rp2454
sg409
g33
((lp2455
g409
atp2456
Rp2457
sg416
g33
((lp2458
g416
atp2459
Rp2460
sg423
g33
((lp2461
g423
atp2462
Rp2463
sg430
g33
((lp2464
g577
ag430
ag402
atp2465
Rp2466
sg437
g33
((lp2467
g437
atp2468
Rp2469
sg444
g33
((lp2470
g444
atp2471
Rp2472
sg451
g33
((lp2473
g577
ag451
ag388
atp2474
Rp2475
sg262
g33
((lp2476
g108
ag38
ag45
ag479
ag500
ag507
ag514
ag528
ag542
ag647
ag262
ag577
ag591
ag598
ag318
ag80
ag353
ag360
ag381
ag388
ag395
ag402
ag430
ag437
ag640
ag94
ag444
ag654
ag661
ag451
atp2477
Rp2478
sg465
g33
((lp2479
g465
atp2480
Rp2481
sg472
g33
((lp2482
g472
atp2483
Rp2484
sg479
g33
((lp2485
g353
ag360
ag381
ag388
ag395
ag402
ag507
ag514
ag500
ag542
ag38
ag430
ag577
ag640
ag591
ag479
ag444
ag598
ag451
ag80
atp2486
Rp2487
sg486
g33
((lp2488
g206
ag38
ag136
ag479
ag59
ag500
ag507
ag514
ag528
ag542
ag549
ag486
ag598
ag577
ag290
ag591
ag304
ag332
ag80
ag353
ag360
ag451
ag381
ag388
ag395
ag402
ag430
ag640
ag94
ag199
ag444
ag654
ag171
atp2489
Rp2490
sg934
g33
((lp2491
g458
ag367
ag374
ag381
ag388
ag395
ag360
ag402
ag430
ag577
ag640
ag248
ag493
ag451
ag598
ag80
atp2492
Rp2493
sg500
g33
((lp2494
g577
ag500
atp2495
Rp2496
sg1207
g33
((lp2497
g353
ag360
ag381
ag388
ag395
ag402
ag507
ag500
ag542
ag430
ag577
ag640
ag591
ag598
ag451
ag80
atp2498
Rp2499
sg692
g33
((lp2500
g353
ag360
ag381
ag388
ag395
ag402
ag507
ag514
ag500
ag542
ag38
ag430
ag577
ag640
ag591
ag444
ag598
ag451
ag80
atp2501
Rp2502
sg521
g33
((lp2503
g521
ag52
atp2504
Rp2505
sg759
g33
((lp2506
g94
ag528
atp2507
Rp2508
sg917
g33
((lp2509
g234
ag416
ag535
atp2510
Rp2511
sg542
g33
((lp2512
g577
ag542
ag500
atp2513
Rp2514
sg549
g33
((lp2515
g381
ag388
ag549
ag577
ag640
ag451
atp2516
Rp2517
sg710
g33
((lp2518
g381
ag388
ag549
ag556
ag577
ag640
ag472
ag451
ag59
atp2519
Rp2520
sg563
g33
((lp2521
g563
ag423
atp2522
Rp2523
sg570
g33
((lp2524
g570
atp2525
Rp2526
sg577
g33
((lp2527
g577
atp2528
Rp2529
sg584
g33
((lp2530
g584
atp2531
Rp2532
sg591
g33
((lp2533
g353
ag360
ag381
ag388
ag395
ag402
ag430
ag577
ag640
ag591
ag598
ag451
ag80
atp2534
Rp2535
sg73
g33
((lp2536
g73
atp2537
Rp2538
sg598
g33
((lp2539
g381
ag388
ag395
ag402
ag430
ag577
ag640
ag598
ag451
atp2540
Rp2541
sg605
g33
((lp2542
g381
ag388
ag549
ag556
ag577
ag640
ag472
ag451
ag59
ag605
atp2543
Rp2544
sg612
g33
((lp2545
g612
atp2546
Rp2547
sg619
g33
((lp2548
g619
atp2549
Rp2550
sg626
g33
((lp2551
g626
atp2552
Rp2553
sg633
g33
((lp2554
g633
atp2555
Rp2556
sg640
g33
((lp2557
g577
ag640
ag451
ag381
ag388
atp2558
Rp2559
sg647
g33
((lp2560
g647
ag45
atp2561
Rp2562
sg654
g33
((lp2563
g654
ag94
ag528
atp2564
Rp2565
sg661
g33
((lp2566
g661
atp2567
Rp2568
ssS'_is_nonlexical'
p2569
I01
sbtp2570
.