(cnumpy.core.multiarray
_reconstruct
p0
(cnumpy
ndarray
p1
(I0
tp2
S'b'
p3
tp4
Rp5
(I1
(I50
I20
tp6
cnumpy
dtype
p7
(S'O8'
p8
I0
I1
tp9
Rp10
(I3
S'|'
p11
NNNI-1
I-1
I63
tp12
bI00
(lp13
S'f'
p14
aS'a'
p15
aS'c'
p16
aS'd'
p17
ag14
ag3
ag17
ag14
ag15
aS'e'
p18
ag18
ag15
ag15
ag18
ag18
ag16
ag18
ag18
ag17
ag3
ag16
ag18
ag3
ag16
ag14
ag14
ag15
ag16
ag3
ag18
ag15
ag16
ag15
ag17
ag16
ag18
ag15
ag18
ag3
ag16
ag16
ag14
ag15
ag16
ag18
ag16
ag14
ag15
ag16
ag15
ag16
ag16
ag14
ag17
ag18
ag15
ag18
ag14
ag18
ag17
ag3
ag17
ag14
ag3
ag15
ag14
ag14
ag16
ag18
ag18
ag16
ag14
ag16
ag18
ag14
ag16
ag16
ag17
ag14
ag17
ag15
ag14
ag17
ag18
ag14
ag15
ag3
ag14
ag14
ag17
ag16
ag3
ag16
ag16
ag15
ag3
ag18
ag14
ag3
ag17
ag16
ag15
ag14
ag16
ag15
ag14
ag14
ag18
ag18
ag17
ag16
ag15
ag3
ag16
ag17
ag16
ag16
ag15
ag14
ag16
ag17
ag15
ag18
ag3
ag17
ag18
ag3
ag18
ag17
ag15
ag18
ag15
ag18
ag16
ag17
ag17
ag16
ag14
ag15
ag14
ag3
ag18
ag16
ag18
ag15
ag18
ag18
ag15
ag14
ag3
ag16
ag14
ag3
ag17
ag16
ag3
ag16
ag14
ag18
ag3
ag17
ag17
ag15
ag3
ag3
ag16
ag16
ag16
ag18
ag14
ag16
ag14
ag18
ag18
ag14
ag3
ag14
ag14
ag15
ag18
ag15
ag17
ag17
ag14
ag15
ag16
ag14
ag16
ag15
ag15
ag3
ag3
ag3
ag16
ag16
ag17
ag16
ag14
ag14
ag17
ag14
ag16
ag14
ag15
ag3
ag15
ag18
ag14
ag15
ag14
ag17
ag17
ag14
ag16
ag18
ag18
ag15
ag14
ag3
ag14
ag17
ag16
ag17
ag16
ag17
ag18
ag18
ag15
ag14
ag15
ag17
ag16
ag16
ag15
ag15
ag14
ag15
ag15
ag16
ag3
ag14
ag3
ag17
ag14
ag14
ag16
ag18
ag3
ag16
ag3
ag17
ag14
ag3
ag16
ag3
ag17
ag18
ag3
ag17
ag18
ag15
ag17
ag17
ag17
ag17
ag3
ag3
ag17
ag15
ag16
ag16
ag15
ag16
ag17
ag15
ag14
ag14
ag16
ag3
ag18
ag16
ag14
ag18
ag15
ag18
ag16
ag14
ag18
ag3
ag3
ag15
ag16
ag14
ag3
ag15
ag16
ag14
ag3
ag14
ag3
ag3
ag15
ag16
ag3
ag18
ag14
ag3
ag3
ag18
ag15
ag3
ag15
ag15
ag3
ag18
ag15
ag3
ag14
ag18
ag17
ag18
ag15
ag17
ag15
ag16
ag16
ag14
ag18
ag14
ag16
ag3
ag14
ag16
ag18
ag14
ag3
ag15
ag18
ag14
ag3
ag18
ag17
ag16
ag18
ag14
ag3
ag15
ag16
ag3
ag3
ag15
ag3
ag17
ag15
ag14
ag16
ag17
ag14
ag15
ag17
ag17
ag16
ag17
ag14
ag15
ag16
ag17
ag3
ag17
ag3
ag14
ag3
ag14
ag3
ag15
ag3
ag3
ag14
ag16
ag18
ag18
ag3
ag14
ag14
ag14
ag3
ag14
ag18
ag16
ag14
ag14
ag14
ag3
ag14
ag15
ag3
ag3
ag17
ag16
ag3
ag18
ag14
ag14
ag15
ag3
ag14
ag18
ag16
ag3
ag17
ag17
ag14
ag3
ag16
ag14
ag14
ag14
ag18
ag16
ag16
ag18
ag3
ag16
ag16
ag17
ag16
ag17
ag3
ag3
ag3
ag14
ag18
ag14
ag15
ag16
ag14
ag18
ag14
ag16
ag18
ag15
ag15
ag16
ag3
ag18
ag14
ag18
ag14
ag17
ag14
ag18
ag14
ag14
ag15
ag14
ag3
ag3
ag17
ag15
ag16
ag17
ag3
ag16
ag16
ag17
ag15
ag18
ag16
ag15
ag16
ag15
ag16
ag15
ag18
ag15
ag3
ag18
ag14
ag14
ag16
ag15
ag16
ag15
ag18
ag14
ag14
ag3
ag14
ag17
ag17
ag15
ag17
ag17
ag3
ag16
ag17
ag18
ag14
ag3
ag15
ag3
ag15
ag14
ag3
ag3
ag15
ag16
ag18
ag16
ag17
ag16
ag18
ag3
ag16
ag14
ag14
ag14
ag3
ag18
ag15
ag17
ag15
ag18
ag18
ag15
ag18
ag18
ag15
ag16
ag15
ag14
ag16
ag18
ag15
ag16
ag18
ag15
ag14
ag3
ag15
ag17
ag15
ag16
ag18
ag16
ag14
ag18
ag16
ag14
ag3
ag18
ag15
ag3
ag15
ag16
ag17
ag14
ag18
ag3
ag18
ag17
ag16
ag14
ag16
ag15
ag3
ag3
ag14
ag18
ag18
ag18
ag3
ag3
ag3
ag3
ag15
ag18
ag15
ag3
ag15
ag15
ag16
ag3
ag3
ag16
ag15
ag18
ag16
ag14
ag17
ag15
ag18
ag14
ag3
ag16
ag14
ag17
ag16
ag16
ag17
ag15
ag16
ag16
ag17
ag15
ag18
ag14
ag14
ag3
ag3
ag14
ag16
ag17
ag3
ag16
ag15
ag14
ag14
ag18
ag3
ag17
ag16
ag17
ag16
ag17
ag15
ag15
ag15
ag18
ag3
ag14
ag15
ag17
ag18
ag15
ag15
ag18
ag18
ag17
ag17
ag16
ag16
ag15
ag16
ag18
ag15
ag16
ag15
ag18
ag18
ag3
ag3
ag18
ag14
ag15
ag16
ag14
ag3
ag3
ag17
ag17
ag16
ag16
ag3
ag18
ag18
ag18
ag15
ag14
ag16
ag3
ag17
ag18
ag14
ag14
ag18
ag18
ag15
ag3
ag18
ag18
ag17
ag14
ag14
ag14
ag3
ag14
ag15
ag16
ag15
ag3
ag18
ag14
ag16
ag18
ag17
ag18
ag15
ag17
ag15
ag15
ag15
ag17
ag15
ag17
ag17
ag17
ag15
ag17
ag17
ag15
ag15
ag14
ag17
ag17
ag16
ag16
ag14
ag14
ag3
ag15
ag15
ag17
ag15
ag3
ag14
ag3
ag17
ag14
ag14
ag14
ag17
ag14
ag16
ag14
ag3
ag15
ag16
ag15
ag14
ag16
ag3
ag14
ag18
ag14
ag14
ag14
ag18
ag17
ag18
ag3
ag15
ag15
ag3
ag14
ag14
ag14
ag18
ag14
ag18
ag16
ag14
ag16
ag16
ag15
ag16
ag15
ag15
ag15
ag14
ag14
ag16
ag16
ag15
ag16
ag18
ag3
ag3
ag15
ag17
ag16
ag17
ag18
ag15
ag15
ag3
ag14
ag17
ag14
ag18
ag15
ag14
ag14
ag18
ag3
ag15
ag17
ag14
ag14
ag18
ag17
ag17
ag14
ag16
ag17
ag16
ag3
ag3
ag17
ag14
ag3
ag18
ag14
ag3
ag16
ag18
ag3
ag18
ag15
ag17
ag14
ag17
ag17
ag3
ag16
ag16
ag15
ag18
ag18
ag15
ag18
ag16
ag3
ag15
ag17
ag17
ag17
ag16
ag18
ag14
ag3
ag16
ag3
ag17
ag16
ag18
ag17
ag3
ag3
ag17
ag16
ag15
ag14
ag18
ag14
ag3
ag3
ag15
ag3
ag18
ag17
ag3
ag15
ag14
ag14
ag16
ag16
ag18
ag3
ag16
ag17
ag15
ag3
ag15
ag18
ag3
ag18
ag17
ag15
ag16
ag17
ag18
ag17
ag15
ag16
ag3
ag16
ag3
ag3
ag17
ag16
ag18
ag16
ag18
ag15
ag14
ag15
ag15
ag18
ag14
ag15
ag3
ag3
ag14
ag14
ag14
ag3
ag14
ag3
ag15
ag15
ag14
ag14
ag18
ag3
ag16
ag18
ag18
ag3
ag18
ag16
ag16
ag15
ag14
ag15
ag3
ag18
ag3
ag3
ag18
ag18
ag16
ag16
ag15
ag18
ag3
ag18
ag17
ag17
ag16
ag15
ag16
ag15
ag18
ag17
ag17
ag3
ag14
ag3
ag18
ag3
ag16
ag16
ag14
ag14
ag18
ag15
ag17
ag15
ag3
ag17
ag17
ag15
ag18
ag17
ag17
ag18
ag16
ag14
ag3
ag18
ag16
ag16
ag3
ag17
ag14
ag16
ag17
ag15
ag16
ag16
ag3
ag18
ag18
ag17
ag17
ag14
ag18
ag17
ag18
ag14
ag17
ag18
ag14
ag3
ag14
ag18
ag14
ag18
ag15
atp19
b(lp20
(lp21
ccopy_reg
_reconstructor
p22
(cnltk.grammar
Nonterminal
p23
c__builtin__
object
p24
Ntp25
Rp26
(dp27
S'_symbol'
p28
S'NT_3'
p29
sS'_hash'
p30
I-7985435147425591464
sbaa(lp31
g26
aa(lp32
g26
aa(lp33
g26
aa(lp34
g26
aa(lp35
g26
aa(lp36
g26
aa(lp37
g26
aa(lp38
g26
aa(lp39
g26
aa(lp40
g26
aa(lp41
g26
aa(lp42
g26
aa(lp43
g26
aa(lp44
g26
aa(lp45
g26
aa(lp46
g26
aa(lp47
g26
aa(lp48
g26
aa(lp49
g26
aa(lp50
g26
aa(lp51
g26
aa(lp52
g26
aa(lp53
g26
aa(lp54
g26
aa(lp55
g26
aa(lp56
g26
aa(lp57
g26
aa(lp58
g26
aa(lp59
g26
aa(lp60
g26
aa(lp61
g26
aa(lp62
g26
aa(lp63
g26
aa(lp64
g26
aa(lp65
g26
aa(lp66
g26
aa(lp67
g26
aa(lp68
g26
aa(lp69
g26
aa(lp70
g26
aa(lp71
g26
aa(lp72
g26
aa(lp73
g26
aa(lp74
g26
aa(lp75
g26
aa(lp76
g26
aa(lp77
g26
aa(lp78
g26
aa(lp79
g26
aag22
(cnltk.grammar
WeightedGrammar
p80
g24
Ntp81
Rp82
(dp83
S'_immediate_leftcorner_words'
p84
(dp85
g22
(g23
g24
Ntp86
Rp87
(dp88
g28
S'NT_0_A'
p89
sg30
I4001506077298011969
sbc__builtin__
set
p90
((lp91
cnumpy.core.multiarray
scalar
p92
(g7
(S'S1'
p93
I0
I1
tp94
Rp95
(I3
S'|'
p96
NNNI1
I1
I0
tp97
bg15
tp98
Rp99
ag16
ag92
(g7
(S'S1'
p100
I0
I1
tp101
Rp102
(I3
S'|'
p103
NNNI1
I1
I0
tp104
bg3
tp105
Rp106
ag92
(g7
(S'S1'
p107
I0
I1
tp108
Rp109
(I3
S'|'
p110
NNNI1
I1
I0
tp111
bg18
tp112
Rp113
ag92
(g7
(S'S1'
p114
I0
I1
tp115
Rp116
(I3
S'|'
p117
NNNI1
I1
I0
tp118
bg17
tp119
Rp120
ag92
(g7
(S'S1'
p121
I0
I1
tp122
Rp123
(I3
S'|'
p124
NNNI1
I1
I0
tp125
bg14
tp126
Rp127
atp128
Rp129
sg22
(g23
g24
Ntp130
Rp131
(dp132
g28
S'NT_0_B'
p133
sg30
I4001506077298011970
sbg90
((lp134
g15
ag92
(g7
(S'S1'
p135
I0
I1
tp136
Rp137
(I3
S'|'
p138
NNNI1
I1
I0
tp139
bg16
tp140
Rp141
ag92
(g7
(S'S1'
p142
I0
I1
tp143
Rp144
(I3
S'|'
p145
NNNI1
I1
I0
tp146
bg3
tp147
Rp148
ag92
(g7
(S'S1'
p149
I0
I1
tp150
Rp151
(I3
S'|'
p152
NNNI1
I1
I0
tp153
bg18
tp154
Rp155
ag92
(g7
(S'S1'
p156
I0
I1
tp157
Rp158
(I3
S'|'
p159
NNNI1
I1
I0
tp160
bg17
tp161
Rp162
ag92
(g7
(S'S1'
p163
I0
I1
tp164
Rp165
(I3
S'|'
p166
NNNI1
I1
I0
tp167
bg14
tp168
Rp169
atp170
Rp171
sg22
(g23
g24
Ntp172
Rp173
(dp174
g28
S'NT_3_B'
p175
sg30
I4001503077426012389
sbg90
((lp176
tp177
Rp178
sg22
(g23
g24
Ntp179
Rp180
(dp181
g28
S'NT_3_A'
p182
sg30
I4001503077426012390
sbg90
((lp183
tp184
Rp185
sg22
(g23
g24
Ntp186
Rp187
(dp188
g28
S'NT_1_A'
p189
sg30
I4001505077426012360
sbg90
((lp190
tp191
Rp192
sg22
(g23
g24
Ntp193
Rp194
(dp195
g28
S'NT_1_B'
p196
sg30
I4001505077426012363
sbg90
((lp197
tp198
Rp199
sg22
(g23
g24
Ntp200
Rp201
(dp202
g28
S'START'
p203
sg30
I-2931417125068050479
sbg90
((lp204
tp205
Rp206
sg22
(g23
g24
Ntp207
Rp208
(dp209
g28
g29
sg30
I-7985435147425591464
sbg90
((lp210
tp211
Rp212
sg22
(g23
g24
Ntp213
Rp214
(dp215
g28
S'NT_2'
p216
sg30
I-7985435147425591463
sbg90
((lp217
tp218
Rp219
sg22
(g23
g24
Ntp220
Rp221
(dp222
g28
S'NT_1'
p223
sg30
I-7985435147425591462
sbg90
((lp224
tp225
Rp226
sg22
(g23
g24
Ntp227
Rp228
(dp229
g28
S'NT_0'
p230
sg30
I-7985435147425591461
sbg90
((lp231
tp232
Rp233
sg22
(g23
g24
Ntp234
Rp235
(dp236
g28
S'NT_2_B'
p237
sg30
I4001504077298011996
sbg90
((lp238
tp239
Rp240
sg22
(g23
g24
Ntp241
Rp242
(dp243
g28
S'NT_2_A'
p244
sg30
I4001504077298011999
sbg90
((lp245
tp246
Rp247
ssS'_lhs_index'
p248
(dp249
g87
(lp250
g22
(cnltk.grammar
WeightedProduction
p251
g24
Ntp252
Rp253
(dp254
S'_rhs'
p255
(g16
tp256
sS'_ProbabilisticMixIn__prob'
p257
F0.17578947368421052
sS'_ProbabilisticMixIn__logprob'
p258
Nsg30
I6794050736008883285
sS'_lhs'
p259
g87
sbag22
(g251
g24
Ntp260
Rp261
(dp262
g255
(g99
tp263
sg257
F0.1705263157894737
sg258
Nsg30
I7183336682732523395
sg259
g87
sbag22
(g251
g24
Ntp264
Rp265
(dp266
g255
(g127
tp267
sg257
F0.19263157894736843
sg258
Nsg30
I-9166772944457962238
sg259
g87
sbag22
(g251
g24
Ntp268
Rp269
(dp270
g255
(g113
tp271
sg257
F0.16210526315789472
sg258
Nsg30
I3328509688806146575
sg259
g87
sbag22
(g251
g24
Ntp272
Rp273
(dp274
g255
(g106
tp275
sg257
F0.16526315789473683
sg258
Nsg30
I-7161440588531040090
sg259
g87
sbag22
(g251
g24
Ntp276
Rp277
(dp278
g255
(g120
tp279
sg257
F0.1336842105263158
sg258
Nsg30
I8343915863929834544
sg259
g87
sbasg131
(lp280
g22
(g251
g24
Ntp281
Rp282
(dp283
g255
(g15
tp284
sg257
F0.16526315789473683
sg258
Nsg30
I7183337801705057620
sg259
g131
sbag22
(g251
g24
Ntp285
Rp286
(dp287
g255
(g155
tp288
sg257
F0.16736842105263158
sg258
Nsg30
I3328513219323953400
sg259
g131
sbag22
(g251
g24
Ntp289
Rp290
(dp291
g255
(g169
tp292
sg257
F0.1936842105263158
sg258
Nsg30
I-9166769414349349863
sg259
g131
sbag22
(g251
g24
Ntp293
Rp294
(dp295
g255
(g162
tp296
sg257
F0.13052631578947368
sg258
Nsg30
I8343919285682024519
sg259
g131
sbag22
(g251
g24
Ntp297
Rp298
(dp299
g255
(g148
tp300
sg257
F0.1694736842105263
sg258
Nsg30
I-7161437199765551915
sg259
g131
sbag22
(g251
g24
Ntp301
Rp302
(dp303
g255
(g141
tp304
sg257
F0.1736842105263158
sg258
Nsg30
I6794051746070742310
sg259
g131
sbasg173
(lp305
g22
(g251
g24
Ntp306
Rp307
(dp308
g255
(g22
(g23
g24
Ntp309
Rp310
(dp311
g28
S'NT_2'
p312
sg30
I-7985435147425591463
sbtp313
sg257
F1.0
sg258
Nsg30
I-1684045600111816704
sg259
g173
sbasg180
(lp314
g22
(g251
g24
Ntp315
Rp316
(dp317
g255
(g22
(g23
g24
Ntp318
Rp319
(dp320
g28
g312
sg30
I-7985435147425591463
sbtp321
sg257
F1.0
sg258
Nsg30
I-1684044234923301329
sg259
g180
sbasg187
(lp322
g22
(g251
g24
Ntp323
Rp324
(dp325
g255
(g22
(g23
g24
Ntp326
Rp327
(dp328
g28
g230
sg30
I-7985435147425591461
sbtp329
sg257
F1.0
sg258
Nsg30
I-8993897179701577761
sg259
g187
sbasg194
(lp330
g22
(g251
g24
Ntp331
Rp332
(dp333
g255
(g327
tp334
sg257
F1.0
sg258
Nsg30
I-8993889395003414236
sg259
g194
sbasg201
(lp335
g22
(g251
g24
Ntp336
Rp337
(dp338
g255
(g26
tp339
sg257
F1.0
sg258
Nsg30
I-5931679290235687717
sg259
g201
sbasg208
(lp340
g22
(g251
g24
Ntp341
Rp342
(dp343
g255
(g180
g173
tp344
sg257
F1.0
sg258
Nsg30
I-7667768775844780991
sg259
g208
sbasg214
(lp345
g22
(g251
g24
Ntp346
Rp347
(dp348
g255
(g242
g235
tp349
sg257
F1.0
sg258
Nsg30
I-5871559387561432942
sg259
g214
sbasg221
(lp350
g22
(g251
g24
Ntp351
Rp352
(dp353
g255
(g187
g194
tp354
sg257
F1.0
sg258
Nsg30
I-8313091015865541001
sg259
g221
sbasg228
(lp355
g22
(g251
g24
Ntp356
Rp357
(dp358
g255
(g87
g131
tp359
sg257
F1.0
sg258
Nsg30
I7829821044040254208
sg259
g228
sbasg235
(lp360
g22
(g251
g24
Ntp361
Rp362
(dp363
g255
(g22
(g23
g24
Ntp364
Rp365
(dp366
g28
g223
sg30
I-7985435147425591462
sbtp367
sg257
F1.0
sg258
Nsg30
I-3812068566330658956
sg259
g235
sbasg242
(lp368
g22
(g251
g24
Ntp369
Rp370
(dp371
g255
(g365
tp372
sg257
F0.8
sg258
Nsg30
I-3812103865783252481
sg259
g242
sbag22
(g251
g24
Ntp373
Rp374
(dp375
g255
(g22
(g23
g24
Ntp376
Rp377
(dp378
g28
g312
sg30
I-7985435147425591463
sbtp379
sg257
F0.2
sg258
Nsg30
I-3812102643700212006
sg259
g242
sbassS'_all_unary_are_lexical'
p380
I00
sS'_empty_index'
p381
(dp382
sS'_categories'
p383
g90
((lp384
g87
ag131
ag173
ag180
ag187
ag194
ag201
ag208
ag214
ag221
ag228
ag235
ag242
atp385
Rp386
sS'_productions'
p387
(lp388
g253
ag261
ag265
ag269
ag273
ag277
ag282
ag286
ag290
ag294
ag298
ag302
ag357
ag324
ag332
ag352
ag370
ag374
ag362
ag347
ag316
ag307
ag342
ag337
asS'_is_lexical'
p389
I00
sS'_max_len'
p390
I2
sS'_min_len'
p391
I1
sS'_rhs_index'
p392
(dp393
g99
(lp394
g261
ag282
asg87
(lp395
g357
asg16
(lp396
g253
ag302
asg106
(lp397
g273
ag298
asg113
(lp398
g269
ag286
asg120
(lp399
g277
ag294
asg180
(lp400
g342
asg127
(lp401
g265
ag290
asg187
(lp402
g352
asg26
(lp403
g337
asg377
(lp404
g374
ag316
ag307
asg365
(lp405
g370
ag362
asg327
(lp406
g324
ag332
asg242
(lp407
g347
assS'_leftcorner_words'
p408
(dp409
g87
g90
((lp410
g99
ag16
ag106
ag113
ag120
ag127
atp411
Rp412
sg131
g90
((lp413
g15
ag141
ag148
ag155
ag162
ag169
atp414
Rp415
sg173
g90
((lp416
g99
ag16
ag106
ag113
ag120
ag127
atp417
Rp418
sg180
g90
((lp419
g99
ag16
ag106
ag113
ag120
ag127
atp420
Rp421
sg187
g90
((lp422
g99
ag16
ag106
ag113
ag120
ag127
atp423
Rp424
sg194
g90
((lp425
g99
ag16
ag106
ag113
ag120
ag127
atp426
Rp427
sg201
g90
((lp428
g99
ag16
ag106
ag113
ag120
ag127
atp429
Rp430
sg208
g90
((lp431
g99
ag16
ag106
ag113
ag120
ag127
atp432
Rp433
sg214
g90
((lp434
g99
ag16
ag106
ag113
ag120
ag127
atp435
Rp436
sg221
g90
((lp437
g99
ag16
ag106
ag113
ag120
ag127
atp438
Rp439
sg228
g90
((lp440
g99
ag16
ag106
ag113
ag120
ag127
atp441
Rp442
sg235
g90
((lp443
g99
ag16
ag106
ag113
ag120
ag127
atp444
Rp445
sg242
g90
((lp446
g99
ag16
ag106
ag113
ag120
ag127
atp447
Rp448
ssS'_lexical_index'
p449
(dp450
g99
g90
((lp451
g282
ag261
atp452
Rp453
sg16
g90
((lp454
g253
ag302
atp455
Rp456
sg106
g90
((lp457
g273
ag298
atp458
Rp459
sg113
g90
((lp460
g286
ag269
atp461
Rp462
sg120
g90
((lp463
g277
ag294
atp464
Rp465
sg127
g90
((lp466
g290
ag265
atp467
Rp468
ssS'_start'
p469
g22
(g23
g24
Ntp470
Rp471
(dp472
g28
g203
sg30
I-2931417125068050479
sbsS'_immediate_leftcorner_categories'
p473
(dp474
g87
g90
((lp475
g87
atp476
Rp477
sg131
g90
((lp478
g131
atp479
Rp480
sg173
g90
((lp481
g310
ag173
atp482
Rp483
sg180
g90
((lp484
g319
ag180
atp485
Rp486
sg187
g90
((lp487
g187
ag327
atp488
Rp489
sg194
g90
((lp490
g327
ag194
atp491
Rp492
sg201
g90
((lp493
g26
ag201
atp494
Rp495
sg208
g90
((lp496
g208
ag180
atp497
Rp498
sg214
g90
((lp499
g214
ag242
atp500
Rp501
sg221
g90
((lp502
g187
ag221
atp503
Rp504
sg228
g90
((lp505
g87
ag228
atp506
Rp507
sg235
g90
((lp508
g365
ag235
atp509
Rp510
sg242
g90
((lp511
g377
ag365
ag242
atp512
Rp513
ssS'_leftcorners'
p514
(dp515
g87
g90
((lp516
g87
atp517
Rp518
sg131
g90
((lp519
g131
atp520
Rp521
sg173
g90
((lp522
g87
ag173
ag187
ag310
ag365
ag327
ag242
atp523
Rp524
sg180
g90
((lp525
g87
ag180
ag187
ag319
ag365
ag327
ag242
atp526
Rp527
sg187
g90
((lp528
g187
ag87
ag327
atp529
Rp530
sg194
g90
((lp531
g87
ag327
ag194
atp532
Rp533
sg201
g90
((lp534
g87
ag180
ag187
ag201
ag26
ag319
ag365
ag327
ag242
atp535
Rp536
sg208
g90
((lp537
g87
ag180
ag187
ag208
ag319
ag365
ag327
ag242
atp538
Rp539
sg214
g90
((lp540
g87
ag187
ag214
ag365
ag327
ag242
atp541
Rp542
sg221
g90
((lp543
g187
ag87
ag221
ag327
atp544
Rp545
sg228
g90
((lp546
g87
ag228
atp547
Rp548
sg235
g90
((lp549
g87
ag187
ag365
ag327
ag235
atp550
Rp551
sg242
g90
((lp552
g87
ag187
ag377
ag365
ag327
ag242
atp553
Rp554
ssS'_leftcorner_parents'
p555
(dp556
g87
g90
((lp557
g87
ag173
ag180
ag187
ag194
ag201
ag208
ag214
ag221
ag228
ag235
ag242
atp558
Rp559
sg131
g90
((lp560
g131
atp561
Rp562
sg173
g90
((lp563
g173
atp564
Rp565
sg180
g90
((lp566
g208
ag201
ag180
atp567
Rp568
sg187
g90
((lp569
g173
ag180
ag187
ag201
ag208
ag214
ag221
ag235
ag242
atp570
Rp571
sg194
g90
((lp572
g194
atp573
Rp574
sg201
g90
((lp575
g201
atp576
Rp577
sg26
g90
((lp578
g208
ag201
atp579
Rp580
sg310
g90
((lp581
g173
ag180
ag201
ag208
ag214
ag242
atp582
Rp583
sg365
g90
((lp584
g173
ag180
ag201
ag208
ag214
ag221
ag235
ag242
atp585
Rp586
sg327
g90
((lp587
g173
ag180
ag187
ag194
ag201
ag208
ag214
ag221
ag228
ag235
ag242
atp588
Rp589
sg235
g90
((lp590
g235
atp591
Rp592
sg242
g90
((lp593
g173
ag180
ag201
ag208
ag214
ag242
atp594
Rp595
ssS'_is_nonlexical'
p596
I01
sbtp597
.