ccopy_reg
_reconstructor
p0
(cnltk.grammar
WeightedGrammar
p1
c__builtin__
object
p2
Ntp3
Rp4
(dp5
S'_immediate_leftcorner_words'
p6
(dp7
g0
(cnltk.grammar
Nonterminal
p8
g2
Ntp9
Rp10
(dp11
S'_symbol'
p12
S'NT_7_B'
p13
sS'_hash'
p14
I4001499077426012289
sbc__builtin__
set
p15
((lp16
S'c'
p17
atp18
Rp19
sg0
(g8
g2
Ntp20
Rp21
(dp22
g12
S'NT_7_A'
p23
sg14
I4001499077426012290
sbg15
((lp24
tp25
Rp26
sg0
(g8
g2
Ntp27
Rp28
(dp29
g12
S'NT_8_A'
p30
sg14
I4001498077298011913
sbg15
((lp31
S'b'
p32
atp33
Rp34
sg0
(g8
g2
Ntp35
Rp36
(dp37
g12
S'NT_8_B'
p38
sg14
I4001498077298011914
sbg15
((lp39
tp40
Rp41
sg0
(g8
g2
Ntp42
Rp43
(dp44
g12
S'NT_9_A'
p45
sg14
I4001497077426012304
sbg15
((lp46
S'd'
p47
atp48
Rp49
sg0
(g8
g2
Ntp50
Rp51
(dp52
g12
S'NT_9_B'
p53
sg14
I4001497077426012307
sbg15
((lp54
tp55
Rp56
sg0
(g8
g2
Ntp57
Rp58
(dp59
g12
S'NT_7'
p60
sg14
I-7985435147425591460
sbg15
((lp61
tp62
Rp63
sg0
(g8
g2
Ntp64
Rp65
(dp66
g12
S'NT_2_A'
p67
sg14
I4001504077298011999
sbg15
((lp68
g17
ag32
atp69
Rp70
sg0
(g8
g2
Ntp71
Rp72
(dp73
g12
S'NT_0_A'
p74
sg14
I4001506077298011969
sbg15
((lp75
S'a'
p76
ag47
atp77
Rp78
sg0
(g8
g2
Ntp79
Rp80
(dp81
g12
S'NT_0_B'
p82
sg14
I4001506077298011970
sbg15
((lp83
g47
atp84
Rp85
sg0
(g8
g2
Ntp86
Rp87
(dp88
g12
S'NT_1_A'
p89
sg14
I4001505077426012360
sbg15
((lp90
g76
ag17
atp91
Rp92
sg0
(g8
g2
Ntp93
Rp94
(dp95
g12
S'NT_1_B'
p96
sg14
I4001505077426012363
sbg15
((lp97
g76
atp98
Rp99
sg0
(g8
g2
Ntp100
Rp101
(dp102
g12
S'NT_9'
p103
sg14
I-7985435147425591470
sbg15
((lp104
tp105
Rp106
sg0
(g8
g2
Ntp107
Rp108
(dp109
g12
S'NT_8'
p110
sg14
I-7985435147425591469
sbg15
((lp111
tp112
Rp113
sg0
(g8
g2
Ntp114
Rp115
(dp116
g12
S'NT_3'
p117
sg14
I-7985435147425591464
sbg15
((lp118
tp119
Rp120
sg0
(g8
g2
Ntp121
Rp122
(dp123
g12
S'NT_2'
p124
sg14
I-7985435147425591463
sbg15
((lp125
tp126
Rp127
sg0
(g8
g2
Ntp128
Rp129
(dp130
g12
S'NT_1'
p131
sg14
I-7985435147425591462
sbg15
((lp132
tp133
Rp134
sg0
(g8
g2
Ntp135
Rp136
(dp137
g12
S'NT_0'
p138
sg14
I-7985435147425591461
sbg15
((lp139
tp140
Rp141
sg0
(g8
g2
Ntp142
Rp143
(dp144
g12
S'NT_2_B'
p145
sg14
I4001504077298011996
sbg15
((lp146
g32
atp147
Rp148
sg0
(g8
g2
Ntp149
Rp150
(dp151
g12
S'NT_6'
p152
sg14
I-7985435147425591459
sbg15
((lp153
tp154
Rp155
sg0
(g8
g2
Ntp156
Rp157
(dp158
g12
S'NT_5'
p159
sg14
I-7985435147425591458
sbg15
((lp160
tp161
Rp162
sg0
(g8
g2
Ntp163
Rp164
(dp165
g12
S'NT_4'
p166
sg14
I-7985435147425591457
sbg15
((lp167
tp168
Rp169
sg0
(g8
g2
Ntp170
Rp171
(dp172
g12
S'NT_3_B'
p173
sg14
I4001503077426012389
sbg15
((lp174
g47
atp175
Rp176
sg0
(g8
g2
Ntp177
Rp178
(dp179
g12
S'NT_3_A'
p180
sg14
I4001503077426012390
sbg15
((lp181
g17
atp182
Rp183
sg0
(g8
g2
Ntp184
Rp185
(dp186
g12
S'NT_4_A'
p187
sg14
I4001502077298012013
sbg15
((lp188
g76
ag47
atp189
Rp190
sg0
(g8
g2
Ntp191
Rp192
(dp193
g12
S'NT_4_B'
p194
sg14
I4001502077298012014
sbg15
((lp195
tp196
Rp197
sg0
(g8
g2
Ntp198
Rp199
(dp200
g12
S'NT_5_A'
p201
sg14
I4001501077426012404
sbg15
((lp202
g17
atp203
Rp204
sg0
(g8
g2
Ntp205
Rp206
(dp207
g12
S'NT_5_B'
p208
sg14
I4001501077426012407
sbg15
((lp209
g17
atp210
Rp211
sg0
(g8
g2
Ntp212
Rp213
(dp214
g12
S'NT_6_B'
p215
sg14
I4001500077298012024
sbg15
((lp216
g76
atp217
Rp218
sg0
(g8
g2
Ntp219
Rp220
(dp221
g12
S'NT_6_A'
p222
sg14
I4001500077298012027
sbg15
((lp223
g47
atp224
Rp225
ssS'_lhs_index'
p226
(dp227
g10
(lp228
g0
(cnltk.grammar
WeightedProduction
p229
g2
Ntp230
Rp231
(dp232
S'_rhs'
p233
(g17
tp234
sS'_ProbabilisticMixIn__prob'
p235
F1.0
sS'_ProbabilisticMixIn__logprob'
p236
Nsg14
I-7424964905941433579
sS'_lhs'
p237
g10
sbasg21
(lp238
g0
(g229
g2
Ntp239
Rp240
(dp241
g233
(g0
(g8
g2
Ntp242
Rp243
(dp244
g12
g124
sg14
I-7985435147425591463
sbtp245
sg235
F0.5
sg236
Nsg14
I1566809815579599147
sg237
g21
sbag0
(g229
g2
Ntp246
Rp247
(dp248
g233
(g0
(g8
g2
Ntp249
Rp250
(dp251
g12
g138
sg14
I-7985435147425591461
sbtp252
sg235
F0.5
sg236
Nsg14
I1566812119705915997
sg237
g21
sbasg28
(lp253
g0
(g229
g2
Ntp254
Rp255
(dp256
g233
(g32
tp257
sg235
F0.7777777777777778
sg236
Nsg14
I5967575164389642622
sg237
g28
sbag0
(g229
g2
Ntp258
Rp259
(dp260
g233
(g0
(g8
g2
Ntp261
Rp262
(dp263
g12
g152
sg14
I-7985435147425591459
sbtp264
sg235
F0.2222222222222222
sg236
Nsg14
I-7492342943638105872
sg237
g28
sbasg36
(lp265
g0
(g229
g2
Ntp266
Rp267
(dp268
g233
(g250
tp269
sg235
F1.0
sg236
Nsg14
I-7492335367356315547
sg237
g36
sbasg43
(lp270
g0
(g229
g2
Ntp271
Rp272
(dp273
g233
(g47
tp274
sg235
F0.6666666666666666
sg236
Nsg14
I8910839098145468093
sg237
g43
sbag0
(g229
g2
Ntp275
Rp276
(dp277
g233
(g0
(g8
g2
Ntp278
Rp279
(dp280
g12
g117
sg14
I-7985435147425591464
sbtp281
sg235
F0.3333333333333333
sg236
Nsg14
I8705392565809478194
sg237
g43
sbasg51
(lp282
g0
(g229
g2
Ntp283
Rp284
(dp285
g233
(g250
tp286
sg235
F1.0
sg236
Nsg14
I8705376666446540844
sg237
g51
sbasg58
(lp287
g0
(g229
g2
Ntp288
Rp289
(dp290
g233
(g21
g10
tp291
sg235
F1.0
sg236
Nsg14
I3245499106526544277
sg237
g58
sbasg65
(lp292
g0
(g229
g2
Ntp293
Rp294
(dp295
g233
(g17
tp296
sg235
F0.36363636363636365
sg236
Nsg14
I-1409277061960915705
sg237
g65
sbag0
(g229
g2
Ntp297
Rp298
(dp299
g233
(g32
tp300
sg235
F0.6363636363636364
sg236
Nsg14
I-5834088612736481808
sg237
g65
sbasg72
(lp301
g0
(g229
g2
Ntp302
Rp303
(dp304
g233
(g76
tp305
sg235
F0.4634146341463415
sg236
Nsg14
I7183336682732523395
sg237
g72
sbag0
(g229
g2
Ntp306
Rp307
(dp308
g233
(g47
tp309
sg235
F0.5365853658536586
sg236
Nsg14
I8343915863929834544
sg237
g72
sbasg80
(lp310
g0
(g229
g2
Ntp311
Rp312
(dp313
g233
(g47
tp314
sg235
F1.0
sg236
Nsg14
I8343919285682024519
sg237
g80
sbasg87
(lp315
g0
(g229
g2
Ntp316
Rp317
(dp318
g233
(g76
tp319
sg235
F0.5
sg236
Nsg14
I5984613606925868898
sg237
g87
sbag0
(g229
g2
Ntp320
Rp321
(dp322
g233
(g17
tp323
sg235
F0.5
sg236
Nsg14
I7996992481145989776
sg237
g87
sbasg94
(lp324
g0
(g229
g2
Ntp325
Rp326
(dp327
g233
(g76
tp328
sg235
F1.0
sg236
Nsg14
I5984608092464494573
sg237
g94
sbasg101
(lp329
g0
(g229
g2
Ntp330
Rp331
(dp332
g233
(g43
g51
tp333
sg235
F1.0
sg236
Nsg14
I8075823227036852623
sg237
g101
sbasg108
(lp334
g0
(g229
g2
Ntp335
Rp336
(dp337
g233
(g28
g36
tp338
sg235
F1.0
sg236
Nsg14
I-3681181833340710680
sg237
g108
sbasg115
(lp339
g0
(g229
g2
Ntp340
Rp341
(dp342
g233
(g178
g171
tp343
sg235
F1.0
sg236
Nsg14
I-7667768775844780991
sg237
g115
sbasg122
(lp344
g0
(g229
g2
Ntp345
Rp346
(dp347
g233
(g65
g143
tp348
sg235
F1.0
sg236
Nsg14
I-5871559387561432942
sg237
g122
sbasg129
(lp349
g0
(g229
g2
Ntp350
Rp351
(dp352
g233
(g87
g94
tp353
sg235
F1.0
sg236
Nsg14
I-8313091015865541001
sg237
g129
sbasg136
(lp354
g0
(g229
g2
Ntp355
Rp356
(dp357
g233
(g72
g80
tp358
sg235
F1.0
sg236
Nsg14
I7829821044040254208
sg237
g136
sbasg143
(lp359
g0
(g229
g2
Ntp360
Rp361
(dp362
g233
(g32
tp363
sg235
F1.0
sg236
Nsg14
I-5834098639404541733
sg237
g143
sbasg150
(lp364
g0
(g229
g2
Ntp365
Rp366
(dp367
g233
(g220
g213
tp368
sg235
F1.0
sg236
Nsg14
I-9219463718024500762
sg237
g150
sbasg157
(lp369
g0
(g229
g2
Ntp370
Rp371
(dp372
g233
(g199
g206
tp373
sg235
F1.0
sg236
Nsg14
I8088976844589319115
sg237
g157
sbasg164
(lp374
g0
(g229
g2
Ntp375
Rp376
(dp377
g233
(g185
g192
tp378
sg235
F1.0
sg236
Nsg14
I2783311938750496004
sg237
g164
sbasg171
(lp379
g0
(g229
g2
Ntp380
Rp381
(dp382
g233
(g47
tp383
sg235
F1.0
sg236
Nsg14
I2189352261035463052
sg237
g171
sbasg178
(lp384
g0
(g229
g2
Ntp385
Rp386
(dp387
g233
(g17
tp388
sg235
F0.9444444444444444
sg236
Nsg14
I-3399722377815528286
sg237
g178
sbag0
(g229
g2
Ntp389
Rp390
(dp391
g233
(g243
tp392
sg235
F0.05555555555555555
sg236
Nsg14
I-1684044234923301329
sg237
g178
sbasg185
(lp393
g0
(g229
g2
Ntp394
Rp395
(dp396
g233
(g76
tp397
sg235
F0.3333333333333333
sg236
Nsg14
I5255544908787222343
sg237
g185
sbag0
(g229
g2
Ntp398
Rp399
(dp400
g233
(g47
tp401
sg235
F0.6666666666666666
sg236
Nsg14
I4095003081043842644
sg237
g185
sbasg192
(lp402
g0
(g229
g2
Ntp403
Rp404
(dp405
g233
(g243
tp406
sg235
F1.0
sg236
Nsg14
I-5864629479820543129
sg237
g192
sbasg199
(lp407
g0
(g229
g2
Ntp408
Rp409
(dp410
g233
(g17
tp411
sg235
F0.7692307692307693
sg236
Nsg14
I4747195838148304724
sg237
g199
sbag0
(g229
g2
Ntp412
Rp413
(dp414
g233
(g0
(g8
g2
Ntp415
Rp416
(dp417
g12
g131
sg14
I-7985435147425591462
sbtp418
sg235
F0.23076923076923078
sg236
Nsg14
I900161267694517580
sg237
g199
sbasg206
(lp419
g0
(g229
g2
Ntp420
Rp421
(dp422
g233
(g17
tp423
sg235
F1.0
sg236
Nsg14
I4747199400944841999
sg237
g206
sbasg213
(lp424
g0
(g229
g2
Ntp425
Rp426
(dp427
g233
(g76
tp428
sg235
F1.0
sg236
Nsg14
I9023137698960112274
sg237
g213
sbasg220
(lp429
g0
(g229
g2
Ntp430
Rp431
(dp432
g233
(g47
tp433
sg235
F0.5
sg236
Nsg14
I5473532967209120714
sg237
g220
sbag0
(g229
g2
Ntp434
Rp435
(dp436
g233
(g279
tp437
sg235
F0.5
sg236
Nsg14
I-7658584136014939259
sg237
g220
sbassS'_all_unary_are_lexical'
p438
I00
sS'_empty_index'
p439
(dp440
sS'_categories'
p441
g15
((lp442
g10
ag21
ag28
ag36
ag43
ag51
ag58
ag65
ag72
ag80
ag87
ag94
ag101
ag108
ag115
ag122
ag129
ag136
ag143
ag150
ag157
ag164
ag171
ag178
ag185
ag192
ag199
ag206
ag213
ag220
atp443
Rp444
sS'_productions'
p445
(lp446
g303
ag307
ag312
ag356
ag317
ag321
ag326
ag351
ag294
ag298
ag361
ag346
ag386
ag390
ag381
ag341
ag395
ag399
ag404
ag376
ag409
ag413
ag421
ag371
ag431
ag435
ag426
ag366
ag240
ag247
ag231
ag289
ag255
ag259
ag267
ag336
ag272
ag276
ag284
ag331
asS'_is_lexical'
p447
I00
sS'_max_len'
p448
I2
sS'_min_len'
p449
I1
sS'_rhs_index'
p450
(dp451
g76
(lp452
g303
ag317
ag326
ag395
ag426
asg72
(lp453
g356
asg17
(lp454
g321
ag294
ag386
ag409
ag421
ag231
asg32
(lp455
g298
ag361
ag255
asg47
(lp456
g307
ag312
ag381
ag399
ag431
ag272
asg178
(lp457
g341
asg87
(lp458
g351
asg28
(lp459
g336
asg250
(lp460
g247
ag267
ag284
asg185
(lp461
g376
asg43
(lp462
g331
asg199
(lp463
g371
asg21
(lp464
g289
asg279
(lp465
g435
ag276
asg243
(lp466
g390
ag404
ag240
asg416
(lp467
g413
asg220
(lp468
g366
asg262
(lp469
g259
asg65
(lp470
g346
assS'_leftcorner_words'
p471
(dp472
g10
g15
((lp473
g17
atp474
Rp475
sg21
g15
((lp476
g76
ag17
ag32
ag47
atp477
Rp478
sg28
g15
((lp479
g17
ag32
ag47
atp480
Rp481
sg36
g15
((lp482
g76
ag47
atp483
Rp484
sg43
g15
((lp485
g17
ag32
ag47
atp486
Rp487
sg51
g15
((lp488
g76
ag47
atp489
Rp490
sg58
g15
((lp491
g76
ag17
ag32
ag47
atp492
Rp493
sg65
g15
((lp494
g17
ag32
atp495
Rp496
sg72
g15
((lp497
g76
ag47
atp498
Rp499
sg80
g15
((lp500
g47
atp501
Rp502
sg87
g15
((lp503
g76
ag17
atp504
Rp505
sg94
g15
((lp506
g76
atp507
Rp508
sg101
g15
((lp509
g17
ag32
ag47
atp510
Rp511
sg108
g15
((lp512
g17
ag32
ag47
atp513
Rp514
sg115
g15
((lp515
g17
ag32
atp516
Rp517
sg122
g15
((lp518
g17
ag32
atp519
Rp520
sg129
g15
((lp521
g76
ag17
atp522
Rp523
sg136
g15
((lp524
g76
ag47
atp525
Rp526
sg143
g15
((lp527
g32
atp528
Rp529
sg150
g15
((lp530
g17
ag32
ag47
atp531
Rp532
sg157
g15
((lp533
g76
ag17
atp534
Rp535
sg164
g15
((lp536
g76
ag47
atp537
Rp538
sg171
g15
((lp539
g47
atp540
Rp541
sg178
g15
((lp542
g17
ag32
atp543
Rp544
sg185
g15
((lp545
g76
ag47
atp546
Rp547
sg192
g15
((lp548
g17
ag32
atp549
Rp550
sg199
g15
((lp551
g76
ag17
atp552
Rp553
sg206
g15
((lp554
g17
atp555
Rp556
sg213
g15
((lp557
g76
atp558
Rp559
sg220
g15
((lp560
g17
ag32
ag47
atp561
Rp562
ssS'_lexical_index'
p563
(dp564
g76
g15
((lp565
g317
ag326
ag395
ag303
ag426
atp566
Rp567
sg17
g15
((lp568
g231
ag409
ag294
ag321
ag421
ag386
atp569
Rp570
sg32
g15
((lp571
g298
ag361
ag255
atp572
Rp573
sg47
g15
((lp574
g307
ag381
ag272
ag399
ag431
ag312
atp575
Rp576
ssS'_start'
p577
g0
(g8
g2
Ntp578
Rp579
(dp580
g12
S'START'
p581
sg14
I-2931417125068050479
sbsS'_immediate_leftcorner_categories'
p582
(dp583
g10
g15
((lp584
g10
atp585
Rp586
sg21
g15
((lp587
g243
ag21
ag250
atp588
Rp589
sg28
g15
((lp590
g28
ag262
atp591
Rp592
sg36
g15
((lp593
g36
ag250
atp594
Rp595
sg43
g15
((lp596
g43
ag279
atp597
Rp598
sg51
g15
((lp599
g250
ag51
atp600
Rp601
sg58
g15
((lp602
g21
ag58
atp603
Rp604
sg65
g15
((lp605
g65
atp606
Rp607
sg72
g15
((lp608
g72
atp609
Rp610
sg80
g15
((lp611
g80
atp612
Rp613
sg87
g15
((lp614
g87
atp615
Rp616
sg94
g15
((lp617
g94
atp618
Rp619
sg101
g15
((lp620
g43
ag101
atp621
Rp622
sg108
g15
((lp623
g28
ag108
atp624
Rp625
sg115
g15
((lp626
g115
ag178
atp627
Rp628
sg122
g15
((lp629
g122
ag65
atp630
Rp631
sg129
g15
((lp632
g87
ag129
atp633
Rp634
sg136
g15
((lp635
g72
ag136
atp636
Rp637
sg143
g15
((lp638
g143
atp639
Rp640
sg150
g15
((lp641
g220
ag150
atp642
Rp643
sg157
g15
((lp644
g199
ag157
atp645
Rp646
sg164
g15
((lp647
g185
ag164
atp648
Rp649
sg171
g15
((lp650
g171
atp651
Rp652
sg178
g15
((lp653
g243
ag178
atp654
Rp655
sg185
g15
((lp656
g185
atp657
Rp658
sg192
g15
((lp659
g243
ag192
atp660
Rp661
sg199
g15
((lp662
g416
ag199
atp663
Rp664
sg206
g15
((lp665
g206
atp666
Rp667
sg213
g15
((lp668
g213
atp669
Rp670
sg220
g15
((lp671
g279
ag220
atp672
Rp673
ssS'_leftcorners'
p674
(dp675
g10
g15
((lp676
g10
atp677
Rp678
sg21
g15
((lp679
g72
ag21
ag243
ag250
ag65
atp680
Rp681
sg28
g15
((lp682
g178
ag243
ag279
ag28
ag220
ag262
ag65
atp683
Rp684
sg36
g15
((lp685
g72
ag36
ag250
atp686
Rp687
sg43
g15
((lp688
g43
ag178
ag279
ag243
ag65
atp689
Rp690
sg51
g15
((lp691
g72
ag250
ag51
atp692
Rp693
sg58
g15
((lp694
g72
ag21
ag243
ag250
ag58
ag65
atp695
Rp696
sg65
g15
((lp697
g65
atp698
Rp699
sg72
g15
((lp700
g72
atp701
Rp702
sg80
g15
((lp703
g80
atp704
Rp705
sg87
g15
((lp706
g87
atp707
Rp708
sg94
g15
((lp709
g94
atp710
Rp711
sg101
g15
((lp712
g43
ag101
ag178
ag279
ag243
ag65
atp713
Rp714
sg108
g15
((lp715
g178
ag28
ag108
ag279
ag243
ag220
ag262
ag65
atp716
Rp717
sg115
g15
((lp718
g115
ag243
ag178
ag65
atp719
Rp720
sg122
g15
((lp721
g122
ag65
atp722
Rp723
sg129
g15
((lp724
g87
ag129
atp725
Rp726
sg136
g15
((lp727
g72
ag136
atp728
Rp729
sg143
g15
((lp730
g143
atp731
Rp732
sg150
g15
((lp733
g178
ag279
ag243
ag220
ag150
ag65
atp734
Rp735
sg157
g15
((lp736
g87
ag416
ag199
ag157
atp737
Rp738
sg164
g15
((lp739
g185
ag164
atp740
Rp741
sg171
g15
((lp742
g171
atp743
Rp744
sg178
g15
((lp745
g243
ag178
ag65
atp746
Rp747
sg185
g15
((lp748
g185
atp749
Rp750
sg192
g15
((lp751
g243
ag192
ag65
atp752
Rp753
sg199
g15
((lp754
g87
ag416
ag199
atp755
Rp756
sg206
g15
((lp757
g206
atp758
Rp759
sg213
g15
((lp760
g213
atp761
Rp762
sg220
g15
((lp763
g178
ag279
ag243
ag220
ag65
atp764
Rp765
ssS'_leftcorner_parents'
p766
(dp767
g10
g15
((lp768
g10
atp769
Rp770
sg21
g15
((lp771
g21
ag58
atp772
Rp773
sg28
g15
((lp774
g28
ag108
atp775
Rp776
sg36
g15
((lp777
g36
atp778
Rp779
sg43
g15
((lp780
g43
ag101
atp781
Rp782
sg51
g15
((lp783
g51
atp784
Rp785
sg58
g15
((lp786
g58
atp787
Rp788
sg164
g15
((lp789
g164
atp790
Rp791
sg72
g15
((lp792
g72
ag21
ag36
ag51
ag136
ag58
atp793
Rp794
sg80
g15
((lp795
g80
atp796
Rp797
sg87
g15
((lp798
g87
ag129
ag199
ag157
atp799
Rp800
sg94
g15
((lp801
g94
atp802
Rp803
sg101
g15
((lp804
g101
atp805
Rp806
sg108
g15
((lp807
g108
atp808
Rp809
sg279
g15
((lp810
g28
ag43
ag101
ag108
ag115
ag220
ag150
atp811
Rp812
sg243
g15
((lp813
g21
ag178
ag28
ag192
ag43
ag101
ag108
ag115
ag122
ag220
ag58
ag150
atp814
Rp815
sg129
g15
((lp816
g129
ag199
ag157
atp817
Rp818
sg250
g15
((lp819
g21
ag51
ag58
ag36
ag136
atp820
Rp821
sg143
g15
((lp822
g143
atp823
Rp824
sg262
g15
((lp825
g28
ag108
ag150
atp826
Rp827
sg157
g15
((lp828
g157
atp829
Rp830
sg65
g15
((lp831
g21
ag178
ag28
ag192
ag43
ag101
ag108
ag115
ag122
ag220
ag58
ag150
ag65
atp832
Rp833
sg171
g15
((lp834
g171
atp835
Rp836
sg178
g15
((lp837
g178
ag28
ag43
ag101
ag108
ag115
ag220
ag150
atp838
Rp839
sg185
g15
((lp840
g185
ag164
atp841
Rp842
sg192
g15
((lp843
g192
atp844
Rp845
sg199
g15
((lp846
g199
ag157
atp847
Rp848
sg206
g15
((lp849
g206
atp850
Rp851
sg213
g15
((lp852
g213
atp853
Rp854
sg220
g15
((lp855
g28
ag108
ag150
ag220
atp856
Rp857
ssS'_is_nonlexical'
p858
I01
sb.